; ModuleID = '/home/ishan/tools/Vitis_HLS/2022.2/bin/radixfft/solution1/.autopilot/db/a.g.ld.5.gdce.bc'
source_filename = "llvm-link"
target datalayout = "e-m:e-i64:64-i128:128-i256:256-i512:512-i1024:1024-i2048:2048-i4096:4096-n8:16:32:64-S128-v16:16-v24:32-v32:32-v48:64-v96:128-v192:256-v256:256-v512:512-v1024:1024"
target triple = "fpga64-xilinx-none"

%struct.complex_t = type { %"struct.ap_fixed<32, 16, AP_TRN, AP_WRAP, 0>", %"struct.ap_fixed<32, 16, AP_TRN, AP_WRAP, 0>" }
%"struct.ap_fixed<32, 16, AP_TRN, AP_WRAP, 0>" = type { %"struct.ap_fixed_base<32, 16, true, AP_TRN, AP_WRAP, 0>" }
%"struct.ap_fixed_base<32, 16, true, AP_TRN, AP_WRAP, 0>" = type { %"struct.ssdm_int<32, true>" }
%"struct.ssdm_int<32, true>" = type { i32 }

; Function Attrs: inaccessiblememonly nounwind
declare void @llvm.sideeffect() #0

; Function Attrs: inaccessiblemem_or_argmemonly noinline
define void @apatb_sr_fft_ir(%struct.complex_t* noalias nocapture nonnull readonly "fpga.decayed.dim.hint"="64" %input, %struct.complex_t* noalias nocapture nonnull "fpga.decayed.dim.hint"="64" %output) local_unnamed_addr #1 {
entry:
  %input_copy_0 = alloca [8 x %struct.complex_t], align 512
  %input_copy_1 = alloca [8 x %struct.complex_t], align 512
  %input_copy_2 = alloca [8 x %struct.complex_t], align 512
  %input_copy_3 = alloca [8 x %struct.complex_t], align 512
  %input_copy_4 = alloca [8 x %struct.complex_t], align 512
  %input_copy_5 = alloca [8 x %struct.complex_t], align 512
  %input_copy_6 = alloca [8 x %struct.complex_t], align 512
  %input_copy_7 = alloca [8 x %struct.complex_t], align 512
  %output_copy_0 = alloca [8 x %struct.complex_t], align 512
  %output_copy_1 = alloca [8 x %struct.complex_t], align 512
  %output_copy_2 = alloca [8 x %struct.complex_t], align 512
  %output_copy_3 = alloca [8 x %struct.complex_t], align 512
  %output_copy_4 = alloca [8 x %struct.complex_t], align 512
  %output_copy_5 = alloca [8 x %struct.complex_t], align 512
  %output_copy_6 = alloca [8 x %struct.complex_t], align 512
  %output_copy_7 = alloca [8 x %struct.complex_t], align 512
  %0 = bitcast %struct.complex_t* %input to [64 x %struct.complex_t]*
  %1 = bitcast %struct.complex_t* %output to [64 x %struct.complex_t]*
  call void @copy_in([64 x %struct.complex_t]* nonnull %0, [8 x %struct.complex_t]* nonnull align 512 %input_copy_0, [8 x %struct.complex_t]* nonnull align 512 %input_copy_1, [8 x %struct.complex_t]* nonnull align 512 %input_copy_2, [8 x %struct.complex_t]* nonnull align 512 %input_copy_3, [8 x %struct.complex_t]* nonnull align 512 %input_copy_4, [8 x %struct.complex_t]* nonnull align 512 %input_copy_5, [8 x %struct.complex_t]* nonnull align 512 %input_copy_6, [8 x %struct.complex_t]* nonnull align 512 %input_copy_7, [64 x %struct.complex_t]* nonnull %1, [8 x %struct.complex_t]* nonnull align 512 %output_copy_0, [8 x %struct.complex_t]* nonnull align 512 %output_copy_1, [8 x %struct.complex_t]* nonnull align 512 %output_copy_2, [8 x %struct.complex_t]* nonnull align 512 %output_copy_3, [8 x %struct.complex_t]* nonnull align 512 %output_copy_4, [8 x %struct.complex_t]* nonnull align 512 %output_copy_5, [8 x %struct.complex_t]* nonnull align 512 %output_copy_6, [8 x %struct.complex_t]* nonnull align 512 %output_copy_7)
  %input_copy.gep_0 = getelementptr [8 x %struct.complex_t], [8 x %struct.complex_t]* %input_copy_0, i64 0, i32 0
  %input_copy.gep_1 = getelementptr [8 x %struct.complex_t], [8 x %struct.complex_t]* %input_copy_1, i64 0, i32 0
  %input_copy.gep_2 = getelementptr [8 x %struct.complex_t], [8 x %struct.complex_t]* %input_copy_2, i64 0, i32 0
  %input_copy.gep_3 = getelementptr [8 x %struct.complex_t], [8 x %struct.complex_t]* %input_copy_3, i64 0, i32 0
  %input_copy.gep_4 = getelementptr [8 x %struct.complex_t], [8 x %struct.complex_t]* %input_copy_4, i64 0, i32 0
  %input_copy.gep_5 = getelementptr [8 x %struct.complex_t], [8 x %struct.complex_t]* %input_copy_5, i64 0, i32 0
  %input_copy.gep_6 = getelementptr [8 x %struct.complex_t], [8 x %struct.complex_t]* %input_copy_6, i64 0, i32 0
  %input_copy.gep_7 = getelementptr [8 x %struct.complex_t], [8 x %struct.complex_t]* %input_copy_7, i64 0, i32 0
  %output_copy.gep_0 = getelementptr [8 x %struct.complex_t], [8 x %struct.complex_t]* %output_copy_0, i64 0, i32 0
  %output_copy.gep_1 = getelementptr [8 x %struct.complex_t], [8 x %struct.complex_t]* %output_copy_1, i64 0, i32 0
  %output_copy.gep_2 = getelementptr [8 x %struct.complex_t], [8 x %struct.complex_t]* %output_copy_2, i64 0, i32 0
  %output_copy.gep_3 = getelementptr [8 x %struct.complex_t], [8 x %struct.complex_t]* %output_copy_3, i64 0, i32 0
  %output_copy.gep_4 = getelementptr [8 x %struct.complex_t], [8 x %struct.complex_t]* %output_copy_4, i64 0, i32 0
  %output_copy.gep_5 = getelementptr [8 x %struct.complex_t], [8 x %struct.complex_t]* %output_copy_5, i64 0, i32 0
  %output_copy.gep_6 = getelementptr [8 x %struct.complex_t], [8 x %struct.complex_t]* %output_copy_6, i64 0, i32 0
  %output_copy.gep_7 = getelementptr [8 x %struct.complex_t], [8 x %struct.complex_t]* %output_copy_7, i64 0, i32 0
  call void @llvm.sideeffect() #6 [ "xlx_array_partition"(%struct.complex_t* %input_copy.gep_0, i32 998, i32 1, i32 0, i1 false) ], !dbg !31
  call void @llvm.sideeffect() #6 [ "xlx_array_partition"(%struct.complex_t* %input_copy.gep_1, i32 998, i32 1, i32 0, i1 false) ], !dbg !31
  call void @llvm.sideeffect() #6 [ "xlx_array_partition"(%struct.complex_t* %input_copy.gep_2, i32 998, i32 1, i32 0, i1 false) ], !dbg !31
  call void @llvm.sideeffect() #6 [ "xlx_array_partition"(%struct.complex_t* %input_copy.gep_3, i32 998, i32 1, i32 0, i1 false) ], !dbg !31
  call void @llvm.sideeffect() #6 [ "xlx_array_partition"(%struct.complex_t* %input_copy.gep_4, i32 998, i32 1, i32 0, i1 false) ], !dbg !31
  call void @llvm.sideeffect() #6 [ "xlx_array_partition"(%struct.complex_t* %input_copy.gep_5, i32 998, i32 1, i32 0, i1 false) ], !dbg !31
  call void @llvm.sideeffect() #6 [ "xlx_array_partition"(%struct.complex_t* %input_copy.gep_6, i32 998, i32 1, i32 0, i1 false) ], !dbg !31
  call void @llvm.sideeffect() #6 [ "xlx_array_partition"(%struct.complex_t* %input_copy.gep_7, i32 998, i32 1, i32 0, i1 false) ], !dbg !31
  call void @llvm.sideeffect() #6 [ "xlx_array_partition"(%struct.complex_t* %output_copy.gep_0, i32 998, i32 1, i32 0, i1 false) ], !dbg !10744
  call void @llvm.sideeffect() #6 [ "xlx_array_partition"(%struct.complex_t* %output_copy.gep_1, i32 998, i32 1, i32 0, i1 false) ], !dbg !10744
  call void @llvm.sideeffect() #6 [ "xlx_array_partition"(%struct.complex_t* %output_copy.gep_2, i32 998, i32 1, i32 0, i1 false) ], !dbg !10744
  call void @llvm.sideeffect() #6 [ "xlx_array_partition"(%struct.complex_t* %output_copy.gep_3, i32 998, i32 1, i32 0, i1 false) ], !dbg !10744
  call void @llvm.sideeffect() #6 [ "xlx_array_partition"(%struct.complex_t* %output_copy.gep_4, i32 998, i32 1, i32 0, i1 false) ], !dbg !10744
  call void @llvm.sideeffect() #6 [ "xlx_array_partition"(%struct.complex_t* %output_copy.gep_5, i32 998, i32 1, i32 0, i1 false) ], !dbg !10744
  call void @llvm.sideeffect() #6 [ "xlx_array_partition"(%struct.complex_t* %output_copy.gep_6, i32 998, i32 1, i32 0, i1 false) ], !dbg !10744
  call void @llvm.sideeffect() #6 [ "xlx_array_partition"(%struct.complex_t* %output_copy.gep_7, i32 998, i32 1, i32 0, i1 false) ], !dbg !10744
  call void @apatb_sr_fft_hw([8 x %struct.complex_t]* %input_copy_0, [8 x %struct.complex_t]* %input_copy_1, [8 x %struct.complex_t]* %input_copy_2, [8 x %struct.complex_t]* %input_copy_3, [8 x %struct.complex_t]* %input_copy_4, [8 x %struct.complex_t]* %input_copy_5, [8 x %struct.complex_t]* %input_copy_6, [8 x %struct.complex_t]* %input_copy_7, [8 x %struct.complex_t]* %output_copy_0, [8 x %struct.complex_t]* %output_copy_1, [8 x %struct.complex_t]* %output_copy_2, [8 x %struct.complex_t]* %output_copy_3, [8 x %struct.complex_t]* %output_copy_4, [8 x %struct.complex_t]* %output_copy_5, [8 x %struct.complex_t]* %output_copy_6, [8 x %struct.complex_t]* %output_copy_7)
  call void @copy_back([64 x %struct.complex_t]* %0, [8 x %struct.complex_t]* %input_copy_0, [8 x %struct.complex_t]* %input_copy_1, [8 x %struct.complex_t]* %input_copy_2, [8 x %struct.complex_t]* %input_copy_3, [8 x %struct.complex_t]* %input_copy_4, [8 x %struct.complex_t]* %input_copy_5, [8 x %struct.complex_t]* %input_copy_6, [8 x %struct.complex_t]* %input_copy_7, [64 x %struct.complex_t]* %1, [8 x %struct.complex_t]* %output_copy_0, [8 x %struct.complex_t]* %output_copy_1, [8 x %struct.complex_t]* %output_copy_2, [8 x %struct.complex_t]* %output_copy_3, [8 x %struct.complex_t]* %output_copy_4, [8 x %struct.complex_t]* %output_copy_5, [8 x %struct.complex_t]* %output_copy_6, [8 x %struct.complex_t]* %output_copy_7)
  ret void
}

; Function Attrs: argmemonly noinline norecurse
define internal void @onebyonecpy_hls.p0a64struct.complex_t.115.116([8 x %struct.complex_t]* noalias align 512 "fpga.caller.interfaces"="layout_transformed" "orig.arg.no"="0" "unpacked"="0.0" %_0, [8 x %struct.complex_t]* noalias align 512 "fpga.caller.interfaces"="layout_transformed" "orig.arg.no"="0" "unpacked"="0.1" %_1, [8 x %struct.complex_t]* noalias align 512 "fpga.caller.interfaces"="layout_transformed" "orig.arg.no"="0" "unpacked"="0.2" %_2, [8 x %struct.complex_t]* noalias align 512 "fpga.caller.interfaces"="layout_transformed" "orig.arg.no"="0" "unpacked"="0.3" %_3, [8 x %struct.complex_t]* noalias align 512 "fpga.caller.interfaces"="layout_transformed" "orig.arg.no"="0" "unpacked"="0.4" %_4, [8 x %struct.complex_t]* noalias align 512 "fpga.caller.interfaces"="layout_transformed" "orig.arg.no"="0" "unpacked"="0.5" %_5, [8 x %struct.complex_t]* noalias align 512 "fpga.caller.interfaces"="layout_transformed" "orig.arg.no"="0" "unpacked"="0.6" %_6, [8 x %struct.complex_t]* noalias align 512 "fpga.caller.interfaces"="layout_transformed" "orig.arg.no"="0" "unpacked"="0.7" %_7, [64 x %struct.complex_t]* noalias readonly "fpga.caller.interfaces"="layout_transformed" "orig.arg.no"="1") #2 {
entry:
  %1 = icmp eq [8 x %struct.complex_t]* %_0, null
  %2 = icmp eq [64 x %struct.complex_t]* %0, null
  %3 = or i1 %1, %2
  br i1 %3, label %ret, label %copy

copy:                                             ; preds = %entry
  br label %for.loop

for.loop:                                         ; preds = %dst.addr.1.0.0.016.exit, %copy
  %for.loop.idx17 = phi i64 [ 0, %copy ], [ %for.loop.idx.next, %dst.addr.1.0.0.016.exit ]
  %src.addr.0.0.0.07 = getelementptr [64 x %struct.complex_t], [64 x %struct.complex_t]* %0, i64 0, i64 %for.loop.idx17, i32 0, i32 0, i32 0, i32 0
  %4 = udiv i64 %for.loop.idx17, 8
  %5 = urem i64 %for.loop.idx17, 8
  %dst.addr.0.0.0.08_0 = getelementptr [8 x %struct.complex_t], [8 x %struct.complex_t]* %_0, i64 0, i64 %5, i32 0, i32 0, i32 0, i32 0
  %dst.addr.0.0.0.08_1 = getelementptr [8 x %struct.complex_t], [8 x %struct.complex_t]* %_1, i64 0, i64 %5, i32 0, i32 0, i32 0, i32 0
  %dst.addr.0.0.0.08_2 = getelementptr [8 x %struct.complex_t], [8 x %struct.complex_t]* %_2, i64 0, i64 %5, i32 0, i32 0, i32 0, i32 0
  %dst.addr.0.0.0.08_3 = getelementptr [8 x %struct.complex_t], [8 x %struct.complex_t]* %_3, i64 0, i64 %5, i32 0, i32 0, i32 0, i32 0
  %dst.addr.0.0.0.08_4 = getelementptr [8 x %struct.complex_t], [8 x %struct.complex_t]* %_4, i64 0, i64 %5, i32 0, i32 0, i32 0, i32 0
  %dst.addr.0.0.0.08_5 = getelementptr [8 x %struct.complex_t], [8 x %struct.complex_t]* %_5, i64 0, i64 %5, i32 0, i32 0, i32 0, i32 0
  %dst.addr.0.0.0.08_6 = getelementptr [8 x %struct.complex_t], [8 x %struct.complex_t]* %_6, i64 0, i64 %5, i32 0, i32 0, i32 0, i32 0
  %dst.addr.0.0.0.08_7 = getelementptr [8 x %struct.complex_t], [8 x %struct.complex_t]* %_7, i64 0, i64 %5, i32 0, i32 0, i32 0, i32 0
  %6 = load i32, i32* %src.addr.0.0.0.07, align 4
  %7 = trunc i64 %4 to i3
  %src.addr.1.0.0.01512 = getelementptr [64 x %struct.complex_t], [64 x %struct.complex_t]* %0, i64 0, i64 %for.loop.idx17, i32 1, i32 0, i32 0, i32 0
  %8 = load i32, i32* %src.addr.1.0.0.01512, align 4
  switch i3 %7, label %dst.addr.1.0.0.016.case.7 [
    i3 0, label %dst.addr.1.0.0.016.case.0
    i3 1, label %dst.addr.1.0.0.016.case.1
    i3 2, label %dst.addr.1.0.0.016.case.2
    i3 3, label %dst.addr.1.0.0.016.case.3
    i3 -4, label %dst.addr.1.0.0.016.case.4
    i3 -3, label %dst.addr.1.0.0.016.case.5
    i3 -2, label %dst.addr.1.0.0.016.case.6
  ]

dst.addr.1.0.0.016.case.0:                        ; preds = %for.loop
  store i32 %6, i32* %dst.addr.0.0.0.08_0, align 8
  %dst.addr.1.0.0.016_013 = getelementptr [8 x %struct.complex_t], [8 x %struct.complex_t]* %_0, i64 0, i64 %5, i32 1, i32 0, i32 0, i32 0
  store i32 %8, i32* %dst.addr.1.0.0.016_013, align 4
  br label %dst.addr.1.0.0.016.exit

dst.addr.1.0.0.016.case.1:                        ; preds = %for.loop
  store i32 %6, i32* %dst.addr.0.0.0.08_1, align 8
  %dst.addr.1.0.0.016_125 = getelementptr [8 x %struct.complex_t], [8 x %struct.complex_t]* %_1, i64 0, i64 %5, i32 1, i32 0, i32 0, i32 0
  store i32 %8, i32* %dst.addr.1.0.0.016_125, align 4
  br label %dst.addr.1.0.0.016.exit

dst.addr.1.0.0.016.case.2:                        ; preds = %for.loop
  store i32 %6, i32* %dst.addr.0.0.0.08_2, align 8
  %dst.addr.1.0.0.016_237 = getelementptr [8 x %struct.complex_t], [8 x %struct.complex_t]* %_2, i64 0, i64 %5, i32 1, i32 0, i32 0, i32 0
  store i32 %8, i32* %dst.addr.1.0.0.016_237, align 4
  br label %dst.addr.1.0.0.016.exit

dst.addr.1.0.0.016.case.3:                        ; preds = %for.loop
  store i32 %6, i32* %dst.addr.0.0.0.08_3, align 8
  %dst.addr.1.0.0.016_349 = getelementptr [8 x %struct.complex_t], [8 x %struct.complex_t]* %_3, i64 0, i64 %5, i32 1, i32 0, i32 0, i32 0
  store i32 %8, i32* %dst.addr.1.0.0.016_349, align 4
  br label %dst.addr.1.0.0.016.exit

dst.addr.1.0.0.016.case.4:                        ; preds = %for.loop
  store i32 %6, i32* %dst.addr.0.0.0.08_4, align 8
  %dst.addr.1.0.0.016_461 = getelementptr [8 x %struct.complex_t], [8 x %struct.complex_t]* %_4, i64 0, i64 %5, i32 1, i32 0, i32 0, i32 0
  store i32 %8, i32* %dst.addr.1.0.0.016_461, align 4
  br label %dst.addr.1.0.0.016.exit

dst.addr.1.0.0.016.case.5:                        ; preds = %for.loop
  store i32 %6, i32* %dst.addr.0.0.0.08_5, align 8
  %dst.addr.1.0.0.016_573 = getelementptr [8 x %struct.complex_t], [8 x %struct.complex_t]* %_5, i64 0, i64 %5, i32 1, i32 0, i32 0, i32 0
  store i32 %8, i32* %dst.addr.1.0.0.016_573, align 4
  br label %dst.addr.1.0.0.016.exit

dst.addr.1.0.0.016.case.6:                        ; preds = %for.loop
  store i32 %6, i32* %dst.addr.0.0.0.08_6, align 8
  %dst.addr.1.0.0.016_6 = getelementptr [8 x %struct.complex_t], [8 x %struct.complex_t]* %_6, i64 0, i64 %5, i32 1, i32 0, i32 0, i32 0
  store i32 %8, i32* %dst.addr.1.0.0.016_6, align 4
  br label %dst.addr.1.0.0.016.exit

dst.addr.1.0.0.016.case.7:                        ; preds = %for.loop
  store i32 %6, i32* %dst.addr.0.0.0.08_7, align 8
  %dst.addr.1.0.0.016_79 = getelementptr [8 x %struct.complex_t], [8 x %struct.complex_t]* %_7, i64 0, i64 %5, i32 1, i32 0, i32 0, i32 0
  store i32 %8, i32* %dst.addr.1.0.0.016_79, align 4
  br label %dst.addr.1.0.0.016.exit

dst.addr.1.0.0.016.exit:                          ; preds = %dst.addr.1.0.0.016.case.7, %dst.addr.1.0.0.016.case.6, %dst.addr.1.0.0.016.case.5, %dst.addr.1.0.0.016.case.4, %dst.addr.1.0.0.016.case.3, %dst.addr.1.0.0.016.case.2, %dst.addr.1.0.0.016.case.1, %dst.addr.1.0.0.016.case.0
  %for.loop.idx.next = add nuw nsw i64 %for.loop.idx17, 1
  %exitcond = icmp ne i64 %for.loop.idx.next, 64
  br i1 %exitcond, label %for.loop, label %ret

ret:                                              ; preds = %dst.addr.1.0.0.016.exit, %entry
  ret void
}

; Function Attrs: argmemonly noinline norecurse
define internal void @copy_in([64 x %struct.complex_t]* noalias readonly "orig.arg.no"="0", [8 x %struct.complex_t]* noalias align 512 "fpga.caller.interfaces"="layout_transformed" "orig.arg.no"="1" "unpacked"="1.0" %_0, [8 x %struct.complex_t]* noalias align 512 "fpga.caller.interfaces"="layout_transformed" "orig.arg.no"="1" "unpacked"="1.1" %_1, [8 x %struct.complex_t]* noalias align 512 "fpga.caller.interfaces"="layout_transformed" "orig.arg.no"="1" "unpacked"="1.2" %_2, [8 x %struct.complex_t]* noalias align 512 "fpga.caller.interfaces"="layout_transformed" "orig.arg.no"="1" "unpacked"="1.3" %_3, [8 x %struct.complex_t]* noalias align 512 "fpga.caller.interfaces"="layout_transformed" "orig.arg.no"="1" "unpacked"="1.4" %_4, [8 x %struct.complex_t]* noalias align 512 "fpga.caller.interfaces"="layout_transformed" "orig.arg.no"="1" "unpacked"="1.5" %_5, [8 x %struct.complex_t]* noalias align 512 "fpga.caller.interfaces"="layout_transformed" "orig.arg.no"="1" "unpacked"="1.6" %_6, [8 x %struct.complex_t]* noalias align 512 "fpga.caller.interfaces"="layout_transformed" "orig.arg.no"="1" "unpacked"="1.7" %_7, [64 x %struct.complex_t]* noalias readonly "orig.arg.no"="2", [8 x %struct.complex_t]* noalias align 512 "fpga.caller.interfaces"="layout_transformed" "orig.arg.no"="3" "unpacked"="3.0" %_01, [8 x %struct.complex_t]* noalias align 512 "fpga.caller.interfaces"="layout_transformed" "orig.arg.no"="3" "unpacked"="3.1" %_12, [8 x %struct.complex_t]* noalias align 512 "fpga.caller.interfaces"="layout_transformed" "orig.arg.no"="3" "unpacked"="3.2" %_23, [8 x %struct.complex_t]* noalias align 512 "fpga.caller.interfaces"="layout_transformed" "orig.arg.no"="3" "unpacked"="3.3" %_34, [8 x %struct.complex_t]* noalias align 512 "fpga.caller.interfaces"="layout_transformed" "orig.arg.no"="3" "unpacked"="3.4" %_45, [8 x %struct.complex_t]* noalias align 512 "fpga.caller.interfaces"="layout_transformed" "orig.arg.no"="3" "unpacked"="3.5" %_56, [8 x %struct.complex_t]* noalias align 512 "fpga.caller.interfaces"="layout_transformed" "orig.arg.no"="3" "unpacked"="3.6" %_67, [8 x %struct.complex_t]* noalias align 512 "fpga.caller.interfaces"="layout_transformed" "orig.arg.no"="3" "unpacked"="3.7" %_78) #3 {
entry:
  call void @onebyonecpy_hls.p0a64struct.complex_t.115.116([8 x %struct.complex_t]* align 512 %_0, [8 x %struct.complex_t]* align 512 %_1, [8 x %struct.complex_t]* align 512 %_2, [8 x %struct.complex_t]* align 512 %_3, [8 x %struct.complex_t]* align 512 %_4, [8 x %struct.complex_t]* align 512 %_5, [8 x %struct.complex_t]* align 512 %_6, [8 x %struct.complex_t]* align 512 %_7, [64 x %struct.complex_t]* %0)
  call void @onebyonecpy_hls.p0a64struct.complex_t.115.116([8 x %struct.complex_t]* align 512 %_01, [8 x %struct.complex_t]* align 512 %_12, [8 x %struct.complex_t]* align 512 %_23, [8 x %struct.complex_t]* align 512 %_34, [8 x %struct.complex_t]* align 512 %_45, [8 x %struct.complex_t]* align 512 %_56, [8 x %struct.complex_t]* align 512 %_67, [8 x %struct.complex_t]* align 512 %_78, [64 x %struct.complex_t]* %1)
  ret void
}

; Function Attrs: argmemonly noinline norecurse
define internal void @onebyonecpy_hls.p0a64struct.complex_t.121.122([64 x %struct.complex_t]* noalias "fpga.caller.interfaces"="layout_transformed" "orig.arg.no"="0", [8 x %struct.complex_t]* noalias readonly align 512 "fpga.caller.interfaces"="layout_transformed" "orig.arg.no"="1" "unpacked"="1.0" %_0, [8 x %struct.complex_t]* noalias readonly align 512 "fpga.caller.interfaces"="layout_transformed" "orig.arg.no"="1" "unpacked"="1.1" %_1, [8 x %struct.complex_t]* noalias readonly align 512 "fpga.caller.interfaces"="layout_transformed" "orig.arg.no"="1" "unpacked"="1.2" %_2, [8 x %struct.complex_t]* noalias readonly align 512 "fpga.caller.interfaces"="layout_transformed" "orig.arg.no"="1" "unpacked"="1.3" %_3, [8 x %struct.complex_t]* noalias readonly align 512 "fpga.caller.interfaces"="layout_transformed" "orig.arg.no"="1" "unpacked"="1.4" %_4, [8 x %struct.complex_t]* noalias readonly align 512 "fpga.caller.interfaces"="layout_transformed" "orig.arg.no"="1" "unpacked"="1.5" %_5, [8 x %struct.complex_t]* noalias readonly align 512 "fpga.caller.interfaces"="layout_transformed" "orig.arg.no"="1" "unpacked"="1.6" %_6, [8 x %struct.complex_t]* noalias readonly align 512 "fpga.caller.interfaces"="layout_transformed" "orig.arg.no"="1" "unpacked"="1.7" %_7) #2 {
entry:
  %1 = icmp eq [64 x %struct.complex_t]* %0, null
  %2 = icmp eq [8 x %struct.complex_t]* %_0, null
  %3 = or i1 %1, %2
  br i1 %3, label %ret, label %copy

copy:                                             ; preds = %entry
  br label %for.loop

for.loop:                                         ; preds = %src.addr.1.0.0.015.exit, %copy
  %for.loop.idx17 = phi i64 [ 0, %copy ], [ %for.loop.idx.next, %src.addr.1.0.0.015.exit ]
  %4 = udiv i64 %for.loop.idx17, 8
  %5 = urem i64 %for.loop.idx17, 8
  %src.addr.0.0.0.07_0 = getelementptr [8 x %struct.complex_t], [8 x %struct.complex_t]* %_0, i64 0, i64 %5, i32 0, i32 0, i32 0, i32 0
  %src.addr.0.0.0.07_1 = getelementptr [8 x %struct.complex_t], [8 x %struct.complex_t]* %_1, i64 0, i64 %5, i32 0, i32 0, i32 0, i32 0
  %src.addr.0.0.0.07_2 = getelementptr [8 x %struct.complex_t], [8 x %struct.complex_t]* %_2, i64 0, i64 %5, i32 0, i32 0, i32 0, i32 0
  %src.addr.0.0.0.07_3 = getelementptr [8 x %struct.complex_t], [8 x %struct.complex_t]* %_3, i64 0, i64 %5, i32 0, i32 0, i32 0, i32 0
  %src.addr.0.0.0.07_4 = getelementptr [8 x %struct.complex_t], [8 x %struct.complex_t]* %_4, i64 0, i64 %5, i32 0, i32 0, i32 0, i32 0
  %src.addr.0.0.0.07_5 = getelementptr [8 x %struct.complex_t], [8 x %struct.complex_t]* %_5, i64 0, i64 %5, i32 0, i32 0, i32 0, i32 0
  %src.addr.0.0.0.07_6 = getelementptr [8 x %struct.complex_t], [8 x %struct.complex_t]* %_6, i64 0, i64 %5, i32 0, i32 0, i32 0, i32 0
  %src.addr.0.0.0.07_7 = getelementptr [8 x %struct.complex_t], [8 x %struct.complex_t]* %_7, i64 0, i64 %5, i32 0, i32 0, i32 0, i32 0
  %dst.addr.0.0.0.08 = getelementptr [64 x %struct.complex_t], [64 x %struct.complex_t]* %0, i64 0, i64 %for.loop.idx17, i32 0, i32 0, i32 0, i32 0
  %6 = trunc i64 %4 to i3
  %dst.addr.1.0.0.01622 = getelementptr [64 x %struct.complex_t], [64 x %struct.complex_t]* %0, i64 0, i64 %for.loop.idx17, i32 1, i32 0, i32 0, i32 0
  switch i3 %6, label %src.addr.1.0.0.015.case.7 [
    i3 0, label %src.addr.1.0.0.015.case.0
    i3 1, label %src.addr.1.0.0.015.case.1
    i3 2, label %src.addr.1.0.0.015.case.2
    i3 3, label %src.addr.1.0.0.015.case.3
    i3 -4, label %src.addr.1.0.0.015.case.4
    i3 -3, label %src.addr.1.0.0.015.case.5
    i3 -2, label %src.addr.1.0.0.015.case.6
  ]

src.addr.1.0.0.015.case.0:                        ; preds = %for.loop
  %_01 = load i32, i32* %src.addr.0.0.0.07_0, align 8
  store i32 %_01, i32* %dst.addr.0.0.0.08, align 8
  %src.addr.1.0.0.015_014 = getelementptr [8 x %struct.complex_t], [8 x %struct.complex_t]* %_0, i64 0, i64 %5, i32 1, i32 0, i32 0, i32 0
  %_09 = load i32, i32* %src.addr.1.0.0.015_014, align 4
  br label %src.addr.1.0.0.015.exit

src.addr.1.0.0.015.case.1:                        ; preds = %for.loop
  %_12 = load i32, i32* %src.addr.0.0.0.07_1, align 8
  store i32 %_12, i32* %dst.addr.0.0.0.08, align 8
  %src.addr.1.0.0.015_127 = getelementptr [8 x %struct.complex_t], [8 x %struct.complex_t]* %_1, i64 0, i64 %5, i32 1, i32 0, i32 0, i32 0
  %_110 = load i32, i32* %src.addr.1.0.0.015_127, align 4
  br label %src.addr.1.0.0.015.exit

src.addr.1.0.0.015.case.2:                        ; preds = %for.loop
  %_23 = load i32, i32* %src.addr.0.0.0.07_2, align 8
  store i32 %_23, i32* %dst.addr.0.0.0.08, align 8
  %src.addr.1.0.0.015_240 = getelementptr [8 x %struct.complex_t], [8 x %struct.complex_t]* %_2, i64 0, i64 %5, i32 1, i32 0, i32 0, i32 0
  %_211 = load i32, i32* %src.addr.1.0.0.015_240, align 4
  br label %src.addr.1.0.0.015.exit

src.addr.1.0.0.015.case.3:                        ; preds = %for.loop
  %_34 = load i32, i32* %src.addr.0.0.0.07_3, align 8
  store i32 %_34, i32* %dst.addr.0.0.0.08, align 8
  %src.addr.1.0.0.015_353 = getelementptr [8 x %struct.complex_t], [8 x %struct.complex_t]* %_3, i64 0, i64 %5, i32 1, i32 0, i32 0, i32 0
  %_312 = load i32, i32* %src.addr.1.0.0.015_353, align 4
  br label %src.addr.1.0.0.015.exit

src.addr.1.0.0.015.case.4:                        ; preds = %for.loop
  %_45 = load i32, i32* %src.addr.0.0.0.07_4, align 8
  store i32 %_45, i32* %dst.addr.0.0.0.08, align 8
  %src.addr.1.0.0.015_466 = getelementptr [8 x %struct.complex_t], [8 x %struct.complex_t]* %_4, i64 0, i64 %5, i32 1, i32 0, i32 0, i32 0
  %_413 = load i32, i32* %src.addr.1.0.0.015_466, align 4
  br label %src.addr.1.0.0.015.exit

src.addr.1.0.0.015.case.5:                        ; preds = %for.loop
  %_56 = load i32, i32* %src.addr.0.0.0.07_5, align 8
  store i32 %_56, i32* %dst.addr.0.0.0.08, align 8
  %src.addr.1.0.0.015_579 = getelementptr [8 x %struct.complex_t], [8 x %struct.complex_t]* %_5, i64 0, i64 %5, i32 1, i32 0, i32 0, i32 0
  %_514 = load i32, i32* %src.addr.1.0.0.015_579, align 4
  br label %src.addr.1.0.0.015.exit

src.addr.1.0.0.015.case.6:                        ; preds = %for.loop
  %_67 = load i32, i32* %src.addr.0.0.0.07_6, align 8
  store i32 %_67, i32* %dst.addr.0.0.0.08, align 8
  %src.addr.1.0.0.015_6 = getelementptr [8 x %struct.complex_t], [8 x %struct.complex_t]* %_6, i64 0, i64 %5, i32 1, i32 0, i32 0, i32 0
  %_615 = load i32, i32* %src.addr.1.0.0.015_6, align 4
  br label %src.addr.1.0.0.015.exit

src.addr.1.0.0.015.case.7:                        ; preds = %for.loop
  %_78 = load i32, i32* %src.addr.0.0.0.07_7, align 8
  store i32 %_78, i32* %dst.addr.0.0.0.08, align 8
  %src.addr.1.0.0.015_78 = getelementptr [8 x %struct.complex_t], [8 x %struct.complex_t]* %_7, i64 0, i64 %5, i32 1, i32 0, i32 0, i32 0
  %_716 = load i32, i32* %src.addr.1.0.0.015_78, align 4
  br label %src.addr.1.0.0.015.exit

src.addr.1.0.0.015.exit:                          ; preds = %src.addr.1.0.0.015.case.7, %src.addr.1.0.0.015.case.6, %src.addr.1.0.0.015.case.5, %src.addr.1.0.0.015.case.4, %src.addr.1.0.0.015.case.3, %src.addr.1.0.0.015.case.2, %src.addr.1.0.0.015.case.1, %src.addr.1.0.0.015.case.0
  %7 = phi i32 [ %_09, %src.addr.1.0.0.015.case.0 ], [ %_110, %src.addr.1.0.0.015.case.1 ], [ %_211, %src.addr.1.0.0.015.case.2 ], [ %_312, %src.addr.1.0.0.015.case.3 ], [ %_413, %src.addr.1.0.0.015.case.4 ], [ %_514, %src.addr.1.0.0.015.case.5 ], [ %_615, %src.addr.1.0.0.015.case.6 ], [ %_716, %src.addr.1.0.0.015.case.7 ]
  store i32 %7, i32* %dst.addr.1.0.0.01622, align 4
  %for.loop.idx.next = add nuw nsw i64 %for.loop.idx17, 1
  %exitcond = icmp ne i64 %for.loop.idx.next, 64
  br i1 %exitcond, label %for.loop, label %ret

ret:                                              ; preds = %src.addr.1.0.0.015.exit, %entry
  ret void
}

; Function Attrs: argmemonly noinline norecurse
define internal void @copy_out([64 x %struct.complex_t]* noalias "orig.arg.no"="0", [8 x %struct.complex_t]* noalias readonly align 512 "fpga.caller.interfaces"="layout_transformed" "orig.arg.no"="1" "unpacked"="1.0" %_0, [8 x %struct.complex_t]* noalias readonly align 512 "fpga.caller.interfaces"="layout_transformed" "orig.arg.no"="1" "unpacked"="1.1" %_1, [8 x %struct.complex_t]* noalias readonly align 512 "fpga.caller.interfaces"="layout_transformed" "orig.arg.no"="1" "unpacked"="1.2" %_2, [8 x %struct.complex_t]* noalias readonly align 512 "fpga.caller.interfaces"="layout_transformed" "orig.arg.no"="1" "unpacked"="1.3" %_3, [8 x %struct.complex_t]* noalias readonly align 512 "fpga.caller.interfaces"="layout_transformed" "orig.arg.no"="1" "unpacked"="1.4" %_4, [8 x %struct.complex_t]* noalias readonly align 512 "fpga.caller.interfaces"="layout_transformed" "orig.arg.no"="1" "unpacked"="1.5" %_5, [8 x %struct.complex_t]* noalias readonly align 512 "fpga.caller.interfaces"="layout_transformed" "orig.arg.no"="1" "unpacked"="1.6" %_6, [8 x %struct.complex_t]* noalias readonly align 512 "fpga.caller.interfaces"="layout_transformed" "orig.arg.no"="1" "unpacked"="1.7" %_7, [64 x %struct.complex_t]* noalias "orig.arg.no"="2", [8 x %struct.complex_t]* noalias readonly align 512 "fpga.caller.interfaces"="layout_transformed" "orig.arg.no"="3" "unpacked"="3.0" %_01, [8 x %struct.complex_t]* noalias readonly align 512 "fpga.caller.interfaces"="layout_transformed" "orig.arg.no"="3" "unpacked"="3.1" %_12, [8 x %struct.complex_t]* noalias readonly align 512 "fpga.caller.interfaces"="layout_transformed" "orig.arg.no"="3" "unpacked"="3.2" %_23, [8 x %struct.complex_t]* noalias readonly align 512 "fpga.caller.interfaces"="layout_transformed" "orig.arg.no"="3" "unpacked"="3.3" %_34, [8 x %struct.complex_t]* noalias readonly align 512 "fpga.caller.interfaces"="layout_transformed" "orig.arg.no"="3" "unpacked"="3.4" %_45, [8 x %struct.complex_t]* noalias readonly align 512 "fpga.caller.interfaces"="layout_transformed" "orig.arg.no"="3" "unpacked"="3.5" %_56, [8 x %struct.complex_t]* noalias readonly align 512 "fpga.caller.interfaces"="layout_transformed" "orig.arg.no"="3" "unpacked"="3.6" %_67, [8 x %struct.complex_t]* noalias readonly align 512 "fpga.caller.interfaces"="layout_transformed" "orig.arg.no"="3" "unpacked"="3.7" %_78) #4 {
entry:
  call void @onebyonecpy_hls.p0a64struct.complex_t.121.122([64 x %struct.complex_t]* %0, [8 x %struct.complex_t]* align 512 %_0, [8 x %struct.complex_t]* align 512 %_1, [8 x %struct.complex_t]* align 512 %_2, [8 x %struct.complex_t]* align 512 %_3, [8 x %struct.complex_t]* align 512 %_4, [8 x %struct.complex_t]* align 512 %_5, [8 x %struct.complex_t]* align 512 %_6, [8 x %struct.complex_t]* align 512 %_7)
  call void @onebyonecpy_hls.p0a64struct.complex_t.121.122([64 x %struct.complex_t]* %1, [8 x %struct.complex_t]* align 512 %_01, [8 x %struct.complex_t]* align 512 %_12, [8 x %struct.complex_t]* align 512 %_23, [8 x %struct.complex_t]* align 512 %_34, [8 x %struct.complex_t]* align 512 %_45, [8 x %struct.complex_t]* align 512 %_56, [8 x %struct.complex_t]* align 512 %_67, [8 x %struct.complex_t]* align 512 %_78)
  ret void
}

declare void @apatb_sr_fft_hw([8 x %struct.complex_t]*, [8 x %struct.complex_t]*, [8 x %struct.complex_t]*, [8 x %struct.complex_t]*, [8 x %struct.complex_t]*, [8 x %struct.complex_t]*, [8 x %struct.complex_t]*, [8 x %struct.complex_t]*, [8 x %struct.complex_t]*, [8 x %struct.complex_t]*, [8 x %struct.complex_t]*, [8 x %struct.complex_t]*, [8 x %struct.complex_t]*, [8 x %struct.complex_t]*, [8 x %struct.complex_t]*, [8 x %struct.complex_t]*)

; Function Attrs: argmemonly noinline norecurse
define internal void @copy_back([64 x %struct.complex_t]* noalias "orig.arg.no"="0", [8 x %struct.complex_t]* noalias readonly align 512 "fpga.caller.interfaces"="layout_transformed" "orig.arg.no"="1" "unpacked"="1.0" %_0, [8 x %struct.complex_t]* noalias readonly align 512 "fpga.caller.interfaces"="layout_transformed" "orig.arg.no"="1" "unpacked"="1.1" %_1, [8 x %struct.complex_t]* noalias readonly align 512 "fpga.caller.interfaces"="layout_transformed" "orig.arg.no"="1" "unpacked"="1.2" %_2, [8 x %struct.complex_t]* noalias readonly align 512 "fpga.caller.interfaces"="layout_transformed" "orig.arg.no"="1" "unpacked"="1.3" %_3, [8 x %struct.complex_t]* noalias readonly align 512 "fpga.caller.interfaces"="layout_transformed" "orig.arg.no"="1" "unpacked"="1.4" %_4, [8 x %struct.complex_t]* noalias readonly align 512 "fpga.caller.interfaces"="layout_transformed" "orig.arg.no"="1" "unpacked"="1.5" %_5, [8 x %struct.complex_t]* noalias readonly align 512 "fpga.caller.interfaces"="layout_transformed" "orig.arg.no"="1" "unpacked"="1.6" %_6, [8 x %struct.complex_t]* noalias readonly align 512 "fpga.caller.interfaces"="layout_transformed" "orig.arg.no"="1" "unpacked"="1.7" %_7, [64 x %struct.complex_t]* noalias "orig.arg.no"="2", [8 x %struct.complex_t]* noalias readonly align 512 "fpga.caller.interfaces"="layout_transformed" "orig.arg.no"="3" "unpacked"="3.0" %_01, [8 x %struct.complex_t]* noalias readonly align 512 "fpga.caller.interfaces"="layout_transformed" "orig.arg.no"="3" "unpacked"="3.1" %_12, [8 x %struct.complex_t]* noalias readonly align 512 "fpga.caller.interfaces"="layout_transformed" "orig.arg.no"="3" "unpacked"="3.2" %_23, [8 x %struct.complex_t]* noalias readonly align 512 "fpga.caller.interfaces"="layout_transformed" "orig.arg.no"="3" "unpacked"="3.3" %_34, [8 x %struct.complex_t]* noalias readonly align 512 "fpga.caller.interfaces"="layout_transformed" "orig.arg.no"="3" "unpacked"="3.4" %_45, [8 x %struct.complex_t]* noalias readonly align 512 "fpga.caller.interfaces"="layout_transformed" "orig.arg.no"="3" "unpacked"="3.5" %_56, [8 x %struct.complex_t]* noalias readonly align 512 "fpga.caller.interfaces"="layout_transformed" "orig.arg.no"="3" "unpacked"="3.6" %_67, [8 x %struct.complex_t]* noalias readonly align 512 "fpga.caller.interfaces"="layout_transformed" "orig.arg.no"="3" "unpacked"="3.7" %_78) #4 {
entry:
  call void @onebyonecpy_hls.p0a64struct.complex_t.121.122([64 x %struct.complex_t]* %1, [8 x %struct.complex_t]* align 512 %_01, [8 x %struct.complex_t]* align 512 %_12, [8 x %struct.complex_t]* align 512 %_23, [8 x %struct.complex_t]* align 512 %_34, [8 x %struct.complex_t]* align 512 %_45, [8 x %struct.complex_t]* align 512 %_56, [8 x %struct.complex_t]* align 512 %_67, [8 x %struct.complex_t]* align 512 %_78)
  ret void
}

define void @sr_fft_hw_stub_wrapper([8 x %struct.complex_t]*, [8 x %struct.complex_t]*, [8 x %struct.complex_t]*, [8 x %struct.complex_t]*, [8 x %struct.complex_t]*, [8 x %struct.complex_t]*, [8 x %struct.complex_t]*, [8 x %struct.complex_t]*, [8 x %struct.complex_t]*, [8 x %struct.complex_t]*, [8 x %struct.complex_t]*, [8 x %struct.complex_t]*, [8 x %struct.complex_t]*, [8 x %struct.complex_t]*, [8 x %struct.complex_t]*, [8 x %struct.complex_t]*) #5 {
entry:
  %16 = alloca [64 x %struct.complex_t]
  %17 = alloca [64 x %struct.complex_t]
  call void @copy_out([64 x %struct.complex_t]* %16, [8 x %struct.complex_t]* %0, [8 x %struct.complex_t]* %1, [8 x %struct.complex_t]* %2, [8 x %struct.complex_t]* %3, [8 x %struct.complex_t]* %4, [8 x %struct.complex_t]* %5, [8 x %struct.complex_t]* %6, [8 x %struct.complex_t]* %7, [64 x %struct.complex_t]* %17, [8 x %struct.complex_t]* %8, [8 x %struct.complex_t]* %9, [8 x %struct.complex_t]* %10, [8 x %struct.complex_t]* %11, [8 x %struct.complex_t]* %12, [8 x %struct.complex_t]* %13, [8 x %struct.complex_t]* %14, [8 x %struct.complex_t]* %15)
  %18 = bitcast [64 x %struct.complex_t]* %16 to %struct.complex_t*
  %19 = bitcast [64 x %struct.complex_t]* %17 to %struct.complex_t*
  call void @sr_fft_hw_stub(%struct.complex_t* %18, %struct.complex_t* %19)
  call void @copy_in([64 x %struct.complex_t]* %16, [8 x %struct.complex_t]* %0, [8 x %struct.complex_t]* %1, [8 x %struct.complex_t]* %2, [8 x %struct.complex_t]* %3, [8 x %struct.complex_t]* %4, [8 x %struct.complex_t]* %5, [8 x %struct.complex_t]* %6, [8 x %struct.complex_t]* %7, [64 x %struct.complex_t]* %17, [8 x %struct.complex_t]* %8, [8 x %struct.complex_t]* %9, [8 x %struct.complex_t]* %10, [8 x %struct.complex_t]* %11, [8 x %struct.complex_t]* %12, [8 x %struct.complex_t]* %13, [8 x %struct.complex_t]* %14, [8 x %struct.complex_t]* %15)
  ret void
}

declare void @sr_fft_hw_stub(%struct.complex_t*, %struct.complex_t*)

attributes #0 = { inaccessiblememonly nounwind }
attributes #1 = { inaccessiblemem_or_argmemonly noinline "fpga.wrapper.func"="wrapper" }
attributes #2 = { argmemonly noinline norecurse "fpga.wrapper.func"="onebyonecpy_hls" }
attributes #3 = { argmemonly noinline norecurse "fpga.wrapper.func"="copyin" }
attributes #4 = { argmemonly noinline norecurse "fpga.wrapper.func"="copyout" }
attributes #5 = { "fpga.wrapper.func"="stub" }
attributes #6 = { inaccessiblememonly nounwind "xlx.source"="user" }

!llvm.dbg.cu = !{}
!llvm.ident = !{!0, !0, !0, !0, !0, !0, !0, !0, !0, !0, !0, !0, !0, !0, !0, !0, !0, !0, !0, !0, !0, !0, !0, !0, !0, !0, !0, !0, !0, !0, !0, !0, !0, !0, !0, !0, !0, !0, !0, !0, !0, !0, !0, !0, !0, !0, !0, !0, !0, !0, !0, !0, !0, !0, !0, !0, !0, !0, !0, !0, !0, !0, !0, !0, !0, !0, !0, !0, !0, !0, !0, !0, !0, !0, !0, !0, !0, !0, !0, !0, !0, !0, !0, !0, !0, !0, !0, !0, !0, !0, !0, !0, !0, !0, !0, !0, !0, !0, !0, !0, !0, !0, !0, !0, !0, !0, !0, !0, !0, !0, !0, !0, !0, !0, !0, !0, !0, !0, !0, !0, !0, !0, !0, !0, !0, !0, !0, !0, !0, !0, !0, !0, !0, !0, !0, !0, !0, !0, !0, !0, !0, !0, !0, !0, !0, !0, !0, !0, !0, !0, !0, !0, !0, !0, !0, !0, !0, !0, !0, !0, !0, !0, !0, !0, !0, !0, !0, !0, !0, !0, !0, !0, !0, !0, !0, !0, !0, !0, !0, !0, !0, !0, !0, !0, !0, !0, !0, !0, !0, !0, !0, !0, !0, !0, !0, !0, !0, !0, !0, !0, !0, !0, !0, !0, !0, !0, !0, !0, !0, !0, !0, !0, !0, !0, !0, !0, !0, !0, !0, !0, !0, !0, !0, !0, !0, !0, !0, !0, !0, !0, !0, !0, !0, !0, !0, !0, !0, !0, !0, !0, !0, !0, !0, !0, !0, !0, !0, !0, !0, !0, !0, !0, !0, !0, !0, !0, !0, !0, !0, !0, !0, !0, !0, !0, !0, !0, !0, !0, !0, !0, !0, !0, !0, !0, !0, !0, !0, !0, !0, !0, !0, !0, !0, !0, !0, !0, !0, !0, !0, !0, !0, !0, !0, !0, !0, !0, !0, !0, !0, !0, !0, !0, !0, !0, !0, !0, !0, !0, !0, !0, !0, !0, !0, !0, !0, !0, !0, !0, !0, !0, !0, !0, !0, !0, !0, !0, !0, !0, !0, !0, !0, !0, !0, !0, !0, !0, !0, !0, !0, !0, !0, !0, !0, !0, !0, !0, !0, !0, !0, !0, !0, !0, !0, !0, !0, !0, !0, !0, !0, !0, !0, !0, !0, !0, !0, !0, !0, !0, !0, !0, !0, !0, !0, !0, !0, !0, !0, !0, !0, !0, !0, !0, !0, !0, !0, !0, !0, !0, !0, !0, !0, !0, !0, !0, !0, !0, !0, !0, !0, !0, !0, !0, !0, !0, !0, !0, !0, !0, !0, !0, !0, !0, !0, !0, !0, !0, !0, !0, !0, !0, !0, !0, !0, !0, !0, !0, !0, !0, !0, !0, !0, !0, !0, !0, !0, !0, !0, !0, !0, !0, !0, !0, !0, !0, !0, !0, !0, !0, !0, !0, !0, !0, !0, !0, !0, !0, !0, !0, !0, !0, !0, !0, !0, !0, !0, !0, !0, !0, !0, !0, !0, !0, !0, !0, !0, !0, !0, !0, !0, !0, !0, !0, !0, !0, !0, !0, !0, !0, !0, !0, !0, !0, !0, !0, !0, !0, !0, !0, !0, !0, !0, !0, !0, !0, !0, !0, !0, !0, !0, !0, !0, !0, !0, !0, !0, !0, !0, !0, !0, !0, !0, !0, !0, !0, !0, !0, !0, !0, !0, !0, !0, !0, !0, !0, !0, !0, !0, !0, !0, !0, !0, !0, !0, !0, !0, !0, !0, !0, !0, !0, !0, !0, !0, !0, !0, !0, !0, !0, !0, !0, !0, !0, !0, !0, !0, !0, !0, !0, !0, !0, !0, !0, !0, !0, !0, !0, !0, !0, !0, !0, !0, !0, !0, !0, !0}
!llvm.module.flags = !{!1, !2, !3}
!blackbox_cfg = !{!4}
!datalayout.transforms.on.top = !{!5, !19}

!0 = !{!"clang version 7.0.0 "}
!1 = !{i32 2, !"Dwarf Version", i32 4}
!2 = !{i32 2, !"Debug Info Version", i32 3}
!3 = !{i32 1, !"wchar_size", i32 4}
!4 = !{}
!5 = !{!6, !8, !10}
!6 = !{!7}
!7 = !{!"0", [64 x %struct.complex_t]* null}
!8 = !{!9}
!9 = !{!"array_partition", !"type=Block", !"dim=1", !"factor=8"}
!10 = !{!11, !12, !13, !14, !15, !16, !17, !18}
!11 = !{!"0.0", [8 x %struct.complex_t]* null}
!12 = !{!"0.1", [8 x %struct.complex_t]* null}
!13 = !{!"0.2", [8 x %struct.complex_t]* null}
!14 = !{!"0.3", [8 x %struct.complex_t]* null}
!15 = !{!"0.4", [8 x %struct.complex_t]* null}
!16 = !{!"0.5", [8 x %struct.complex_t]* null}
!17 = !{!"0.6", [8 x %struct.complex_t]* null}
!18 = !{!"0.7", [8 x %struct.complex_t]* null}
!19 = !{!20, !8, !22}
!20 = !{!21}
!21 = !{!"1", [64 x %struct.complex_t]* null}
!22 = !{!23, !24, !25, !26, !27, !28, !29, !30}
!23 = !{!"1.0", [8 x %struct.complex_t]* null}
!24 = !{!"1.1", [8 x %struct.complex_t]* null}
!25 = !{!"1.2", [8 x %struct.complex_t]* null}
!26 = !{!"1.3", [8 x %struct.complex_t]* null}
!27 = !{!"1.4", [8 x %struct.complex_t]* null}
!28 = !{!"1.5", [8 x %struct.complex_t]* null}
!29 = !{!"1.6", [8 x %struct.complex_t]* null}
!30 = !{!"1.7", [8 x %struct.complex_t]* null}
!31 = !DILocation(line: 306, column: 9, scope: !32)
!32 = distinct !DISubprogram(name: "sr_fft", scope: !33, file: !33, line: 300, type: !34, isLocal: false, isDefinition: true, scopeLine: 300, flags: DIFlagPrototyped, isOptimized: false, unit: !4017, variables: !4)
!33 = !DIFile(filename: "radixfft/core.cpp", directory: "/home/ishan/tools/Vitis_HLS/2022.2/bin")
!34 = !DISubroutineType(types: !35)
!35 = !{null, !36, !36}
!36 = !DIDerivedType(tag: DW_TAG_pointer_type, baseType: !37, size: 64)
!37 = distinct !DICompositeType(tag: DW_TAG_structure_type, name: "complex_t", file: !33, line: 11, size: 64, flags: DIFlagTypePassByValue, elements: !38, identifier: "_ZTS9complex_t")
!38 = !{!39, !4016}
!39 = !DIDerivedType(tag: DW_TAG_member, name: "real", scope: !37, file: !33, line: 12, baseType: !40, size: 32)
!40 = !DIDerivedType(tag: DW_TAG_typedef, name: "fixed_t", file: !33, line: 8, baseType: !41)
!41 = distinct !DICompositeType(tag: DW_TAG_structure_type, name: "ap_fixed<32, 16, AP_TRN, AP_WRAP, 0>", file: !42, line: 18, size: 32, flags: DIFlagTypePassByValue, elements: !43, templateParams: !4015, identifier: "_ZTS8ap_fixedILi32ELi16EL9ap_q_mode5EL9ap_o_mode3ELi0EE")
!42 = !DIFile(filename: "/home/ishan/tools/Vitis_HLS/2022.2/common/technology/autopilot/ap_fixed.h", directory: "/home/ishan/tools/Vitis_HLS/2022.2/bin")
!43 = !{!44, !4008}
!44 = !DIDerivedType(tag: DW_TAG_inheritance, scope: !41, baseType: !45)
!45 = distinct !DICompositeType(tag: DW_TAG_structure_type, name: "ap_fixed_base<32, 16, true, AP_TRN, AP_WRAP, 0>", file: !46, line: 110, size: 32, flags: DIFlagTypePassByValue, elements: !47, templateParams: !4005, identifier: "_ZTS13ap_fixed_baseILi32ELi16ELb1EL9ap_q_mode5EL9ap_o_mode3ELi0EE")
!46 = !DIFile(filename: "/home/ishan/tools/Vitis_HLS/2022.2/common/technology/autopilot/ap_fixed_base.h", directory: "/home/ishan/tools/Vitis_HLS/2022.2/bin")
!47 = !{!48, !65, !67, !68, !80, !89, !93, !96, !99, !104, !105, !111, !115, !119, !122, !126, !131, !136, !141, !144, !149, !154, !159, !165, !171, !175, !179, !184, !188, !191, !194, !1558, !1561, !1562, !1565, !1568, !1571, !1574, !1577, !1580, !1583, !1587, !1588, !1589, !1590, !1593, !1594, !1597, !1600, !1603, !1606, !1607, !1608, !1611, !1614, !1615, !1616, !1617, !1618, !1621, !1622, !1625, !1626, !1634, !3933, !3936, !3937, !3940, !3943, !3944, !3947, !3948, !3951, !3954, !3955, !3956, !3959, !3960, !3961, !3962, !3963, !3964, !3968, !3971, !3972, !3973, !3976, !3980, !3983, !3986, !3989, !3990, !3991, !3992, !3993, !3994, !3995, !3998, !4001, !4002}
!48 = !DIDerivedType(tag: DW_TAG_inheritance, scope: !45, baseType: !49)
!49 = distinct !DICompositeType(tag: DW_TAG_structure_type, name: "ssdm_int<32, true>", file: !50, line: 511, size: 32, flags: DIFlagTypePassByValue, elements: !51, templateParams: !61, identifier: "_ZTS8ssdm_intILi32ELb1EE")
!50 = !DIFile(filename: "/home/ishan/tools/Vitis_HLS/2022.2/common/technology/autopilot/ap_common.h", directory: "/home/ishan/tools/Vitis_HLS/2022.2/bin")
!51 = !{!52, !54, !58}
!52 = !DIDerivedType(tag: DW_TAG_member, name: "V", scope: !49, file: !50, line: 513, baseType: !53, size: 32)
!53 = !DIBasicType(name: "int", size: 32, encoding: DW_ATE_signed)
!54 = !DISubprogram(name: "ssdm_int", scope: !49, file: !50, line: 514, type: !55, isLocal: false, isDefinition: false, scopeLine: 514, flags: DIFlagPrototyped, isOptimized: false)
!55 = !DISubroutineType(types: !56)
!56 = !{null, !57}
!57 = !DIDerivedType(tag: DW_TAG_pointer_type, baseType: !49, size: 64, flags: DIFlagArtificial | DIFlagObjectPointer)
!58 = !DISubprogram(name: "ssdm_int", scope: !49, file: !50, line: 515, type: !59, isLocal: false, isDefinition: false, scopeLine: 515, flags: DIFlagPrototyped, isOptimized: false)
!59 = !DISubroutineType(types: !60)
!60 = !{null, !57, !53}
!61 = !{!62, !63}
!62 = !DITemplateValueParameter(name: "_AP_N", type: !53, value: i32 32)
!63 = !DITemplateValueParameter(name: "_AP_S", type: !64, value: i8 1)
!64 = !DIBasicType(name: "bool", size: 8, encoding: DW_ATE_boolean)
!65 = !DIDerivedType(tag: DW_TAG_member, name: "width", scope: !45, file: !46, line: 113, baseType: !66, flags: DIFlagStaticMember, extraData: i32 32)
!66 = !DIDerivedType(tag: DW_TAG_const_type, baseType: !53)
!67 = !DIDerivedType(tag: DW_TAG_member, name: "iwidth", scope: !45, file: !46, line: 114, baseType: !66, flags: DIFlagStaticMember, extraData: i32 16)
!68 = !DIDerivedType(tag: DW_TAG_member, name: "qmode", scope: !45, file: !46, line: 115, baseType: !69, flags: DIFlagStaticMember, extraData: i32 5)
!69 = !DIDerivedType(tag: DW_TAG_const_type, baseType: !70)
!70 = distinct !DICompositeType(tag: DW_TAG_enumeration_type, name: "ap_q_mode", file: !71, line: 54, size: 32, elements: !72, identifier: "_ZTS9ap_q_mode")
!71 = !DIFile(filename: "/home/ishan/tools/Vitis_HLS/2022.2/common/technology/autopilot/ap_decl.h", directory: "/home/ishan/tools/Vitis_HLS/2022.2/bin")
!72 = !{!73, !74, !75, !76, !77, !78, !79}
!73 = !DIEnumerator(name: "AP_RND", value: 0)
!74 = !DIEnumerator(name: "AP_RND_ZERO", value: 1)
!75 = !DIEnumerator(name: "AP_RND_MIN_INF", value: 2)
!76 = !DIEnumerator(name: "AP_RND_INF", value: 3)
!77 = !DIEnumerator(name: "AP_RND_CONV", value: 4)
!78 = !DIEnumerator(name: "AP_TRN", value: 5)
!79 = !DIEnumerator(name: "AP_TRN_ZERO", value: 6)
!80 = !DIDerivedType(tag: DW_TAG_member, name: "omode", scope: !45, file: !46, line: 116, baseType: !81, flags: DIFlagStaticMember, extraData: i32 3)
!81 = !DIDerivedType(tag: DW_TAG_const_type, baseType: !82)
!82 = distinct !DICompositeType(tag: DW_TAG_enumeration_type, name: "ap_o_mode", file: !71, line: 76, size: 32, elements: !83, identifier: "_ZTS9ap_o_mode")
!83 = !{!84, !85, !86, !87, !88}
!84 = !DIEnumerator(name: "AP_SAT", value: 0)
!85 = !DIEnumerator(name: "AP_SAT_ZERO", value: 1)
!86 = !DIEnumerator(name: "AP_SAT_SYM", value: 2)
!87 = !DIEnumerator(name: "AP_WRAP", value: 3)
!88 = !DIEnumerator(name: "AP_WRAP_SM", value: 4)
!89 = !DISubprogram(name: "report", linkageName: "_ZN13ap_fixed_baseILi32ELi16ELb1EL9ap_q_mode5EL9ap_o_mode3ELi0EE6reportEv", scope: !45, file: !46, line: 295, type: !90, isLocal: false, isDefinition: false, scopeLine: 295, flags: DIFlagPrivate | DIFlagPrototyped, isOptimized: false)
!90 = !DISubroutineType(types: !91)
!91 = !{null, !92}
!92 = !DIDerivedType(tag: DW_TAG_pointer_type, baseType: !45, size: 64, flags: DIFlagArtificial | DIFlagObjectPointer)
!93 = !DISubprogram(name: "overflow_adjust", linkageName: "_ZN13ap_fixed_baseILi32ELi16ELb1EL9ap_q_mode5EL9ap_o_mode3ELi0EE15overflow_adjustEbbbb", scope: !45, file: !46, line: 300, type: !94, isLocal: false, isDefinition: false, scopeLine: 300, flags: DIFlagPrivate | DIFlagPrototyped, isOptimized: false)
!94 = !DISubroutineType(types: !95)
!95 = !{null, !92, !64, !64, !64, !64}
!96 = !DISubprogram(name: "quantization_adjust", linkageName: "_ZN13ap_fixed_baseILi32ELi16ELb1EL9ap_q_mode5EL9ap_o_mode3ELi0EE19quantization_adjustEbbb", scope: !45, file: !46, line: 364, type: !97, isLocal: false, isDefinition: false, scopeLine: 364, flags: DIFlagPrivate | DIFlagPrototyped, isOptimized: false)
!97 = !DISubroutineType(types: !98)
!98 = !{!64, !92, !64, !64, !64}
!99 = !DISubprogram(name: "countLeadingOnes", linkageName: "_ZNK13ap_fixed_baseILi32ELi16ELb1EL9ap_q_mode5EL9ap_o_mode3ELi0EE16countLeadingOnesEv", scope: !45, file: !46, line: 382, type: !100, isLocal: false, isDefinition: false, scopeLine: 382, flags: DIFlagPrivate | DIFlagPrototyped, isOptimized: false)
!100 = !DISubroutineType(types: !101)
!101 = !{!53, !102}
!102 = !DIDerivedType(tag: DW_TAG_pointer_type, baseType: !103, size: 64, flags: DIFlagArtificial | DIFlagObjectPointer)
!103 = !DIDerivedType(tag: DW_TAG_const_type, baseType: !45)
!104 = !DISubprogram(name: "ap_fixed_base", scope: !45, file: !46, line: 395, type: !90, isLocal: false, isDefinition: false, scopeLine: 395, flags: DIFlagPrototyped, isOptimized: false)
!105 = !DISubprogram(name: "ap_fixed_base", scope: !45, file: !46, line: 456, type: !106, isLocal: false, isDefinition: false, scopeLine: 456, flags: DIFlagPrototyped, isOptimized: false)
!106 = !DISubroutineType(types: !107)
!107 = !{null, !92, !108}
!108 = !DIDerivedType(tag: DW_TAG_pointer_type, baseType: !109, size: 64)
!109 = !DIDerivedType(tag: DW_TAG_const_type, baseType: !110)
!110 = !DIBasicType(name: "char", size: 8, encoding: DW_ATE_signed_char)
!111 = !DISubprogram(name: "ap_fixed_base", scope: !45, file: !46, line: 462, type: !112, isLocal: false, isDefinition: false, scopeLine: 462, flags: DIFlagPrototyped, isOptimized: false)
!112 = !DISubroutineType(types: !113)
!113 = !{null, !92, !108, !114}
!114 = !DIBasicType(name: "signed char", size: 8, encoding: DW_ATE_signed_char)
!115 = !DISubprogram(name: "ap_fixed_base", scope: !45, file: !46, line: 524, type: !116, isLocal: false, isDefinition: false, scopeLine: 524, flags: DIFlagPrototyped, isOptimized: false)
!116 = !DISubroutineType(types: !117)
!117 = !{null, !92, !118}
!118 = !DIDerivedType(tag: DW_TAG_const_type, baseType: !64)
!119 = !DISubprogram(name: "ap_fixed_base", scope: !45, file: !46, line: 525, type: !120, isLocal: false, isDefinition: false, scopeLine: 525, flags: DIFlagPrototyped, isOptimized: false)
!120 = !DISubroutineType(types: !121)
!121 = !{null, !92, !109}
!122 = !DISubprogram(name: "ap_fixed_base", scope: !45, file: !46, line: 526, type: !123, isLocal: false, isDefinition: false, scopeLine: 526, flags: DIFlagPrototyped, isOptimized: false)
!123 = !DISubroutineType(types: !124)
!124 = !{null, !92, !125}
!125 = !DIDerivedType(tag: DW_TAG_const_type, baseType: !114)
!126 = !DISubprogram(name: "ap_fixed_base", scope: !45, file: !46, line: 527, type: !127, isLocal: false, isDefinition: false, scopeLine: 527, flags: DIFlagPrototyped, isOptimized: false)
!127 = !DISubroutineType(types: !128)
!128 = !{null, !92, !129}
!129 = !DIDerivedType(tag: DW_TAG_const_type, baseType: !130)
!130 = !DIBasicType(name: "unsigned char", size: 8, encoding: DW_ATE_unsigned_char)
!131 = !DISubprogram(name: "ap_fixed_base", scope: !45, file: !46, line: 528, type: !132, isLocal: false, isDefinition: false, scopeLine: 528, flags: DIFlagPrototyped, isOptimized: false)
!132 = !DISubroutineType(types: !133)
!133 = !{null, !92, !134}
!134 = !DIDerivedType(tag: DW_TAG_const_type, baseType: !135)
!135 = !DIBasicType(name: "short", size: 16, encoding: DW_ATE_signed)
!136 = !DISubprogram(name: "ap_fixed_base", scope: !45, file: !46, line: 529, type: !137, isLocal: false, isDefinition: false, scopeLine: 529, flags: DIFlagPrototyped, isOptimized: false)
!137 = !DISubroutineType(types: !138)
!138 = !{null, !92, !139}
!139 = !DIDerivedType(tag: DW_TAG_const_type, baseType: !140)
!140 = !DIBasicType(name: "unsigned short", size: 16, encoding: DW_ATE_unsigned)
!141 = !DISubprogram(name: "ap_fixed_base", scope: !45, file: !46, line: 530, type: !142, isLocal: false, isDefinition: false, scopeLine: 530, flags: DIFlagPrototyped, isOptimized: false)
!142 = !DISubroutineType(types: !143)
!143 = !{null, !92, !66}
!144 = !DISubprogram(name: "ap_fixed_base", scope: !45, file: !46, line: 531, type: !145, isLocal: false, isDefinition: false, scopeLine: 531, flags: DIFlagPrototyped, isOptimized: false)
!145 = !DISubroutineType(types: !146)
!146 = !{null, !92, !147}
!147 = !DIDerivedType(tag: DW_TAG_const_type, baseType: !148)
!148 = !DIBasicType(name: "unsigned int", size: 32, encoding: DW_ATE_unsigned)
!149 = !DISubprogram(name: "ap_fixed_base", scope: !45, file: !46, line: 532, type: !150, isLocal: false, isDefinition: false, scopeLine: 532, flags: DIFlagPrototyped, isOptimized: false)
!150 = !DISubroutineType(types: !151)
!151 = !{null, !92, !152}
!152 = !DIDerivedType(tag: DW_TAG_const_type, baseType: !153)
!153 = !DIBasicType(name: "long int", size: 64, encoding: DW_ATE_signed)
!154 = !DISubprogram(name: "ap_fixed_base", scope: !45, file: !46, line: 533, type: !155, isLocal: false, isDefinition: false, scopeLine: 533, flags: DIFlagPrototyped, isOptimized: false)
!155 = !DISubroutineType(types: !156)
!156 = !{null, !92, !157}
!157 = !DIDerivedType(tag: DW_TAG_const_type, baseType: !158)
!158 = !DIBasicType(name: "long unsigned int", size: 64, encoding: DW_ATE_unsigned)
!159 = !DISubprogram(name: "ap_fixed_base", scope: !45, file: !46, line: 534, type: !160, isLocal: false, isDefinition: false, scopeLine: 534, flags: DIFlagPrototyped, isOptimized: false)
!160 = !DISubroutineType(types: !161)
!161 = !{null, !92, !162}
!162 = !DIDerivedType(tag: DW_TAG_const_type, baseType: !163)
!163 = !DIDerivedType(tag: DW_TAG_typedef, name: "ap_slong", file: !71, line: 187, baseType: !164)
!164 = !DIBasicType(name: "long long int", size: 64, encoding: DW_ATE_signed)
!165 = !DISubprogram(name: "ap_fixed_base", scope: !45, file: !46, line: 535, type: !166, isLocal: false, isDefinition: false, scopeLine: 535, flags: DIFlagPrototyped, isOptimized: false)
!166 = !DISubroutineType(types: !167)
!167 = !{null, !92, !168}
!168 = !DIDerivedType(tag: DW_TAG_const_type, baseType: !169)
!169 = !DIDerivedType(tag: DW_TAG_typedef, name: "ap_ulong", file: !71, line: 188, baseType: !170)
!170 = !DIBasicType(name: "long long unsigned int", size: 64, encoding: DW_ATE_unsigned)
!171 = !DISubprogram(name: "ap_fixed_base", scope: !45, file: !46, line: 543, type: !172, isLocal: false, isDefinition: false, scopeLine: 543, flags: DIFlagPrototyped, isOptimized: false)
!172 = !DISubroutineType(types: !173)
!173 = !{null, !92, !174}
!174 = !DIBasicType(name: "double", size: 64, encoding: DW_ATE_float)
!175 = !DISubprogram(name: "ap_fixed_base", scope: !45, file: !46, line: 661, type: !176, isLocal: false, isDefinition: false, scopeLine: 661, flags: DIFlagPrototyped, isOptimized: false)
!176 = !DISubroutineType(types: !177)
!177 = !{null, !92, !178}
!178 = !DIBasicType(name: "float", size: 32, encoding: DW_ATE_float)
!179 = !DISubprogram(name: "ap_fixed_base", scope: !45, file: !46, line: 664, type: !180, isLocal: false, isDefinition: false, scopeLine: 664, flags: DIFlagPrototyped, isOptimized: false)
!180 = !DISubroutineType(types: !181)
!181 = !{null, !92, !182}
!182 = !DIDerivedType(tag: DW_TAG_typedef, name: "half", file: !50, line: 613, baseType: !183)
!183 = !DIBasicType(name: "__fp16", size: 16, encoding: DW_ATE_float)
!184 = !DISubprogram(name: "setBits", linkageName: "_ZN13ap_fixed_baseILi32ELi16ELb1EL9ap_q_mode5EL9ap_o_mode3ELi0EE7setBitsEy", scope: !45, file: !46, line: 917, type: !185, isLocal: false, isDefinition: false, scopeLine: 917, flags: DIFlagPrototyped, isOptimized: false)
!185 = !DISubroutineType(types: !186)
!186 = !{!187, !92, !169}
!187 = !DIDerivedType(tag: DW_TAG_reference_type, baseType: !45, size: 64)
!188 = !DISubprogram(name: "bitsToFixed", linkageName: "_ZN13ap_fixed_baseILi32ELi16ELb1EL9ap_q_mode5EL9ap_o_mode3ELi0EE11bitsToFixedEy", scope: !45, file: !46, line: 924, type: !189, isLocal: false, isDefinition: false, scopeLine: 924, flags: DIFlagPrototyped | DIFlagStaticMember, isOptimized: false)
!189 = !DISubroutineType(types: !190)
!190 = !{!45, !169}
!191 = !DISubprogram(name: "checkOverflowCsimFix", linkageName: "_ZNK13ap_fixed_baseILi32ELi16ELb1EL9ap_q_mode5EL9ap_o_mode3ELi0EE20checkOverflowCsimFixEib", scope: !45, file: !46, line: 935, type: !192, isLocal: false, isDefinition: false, scopeLine: 935, flags: DIFlagPrototyped, isOptimized: false)
!192 = !DISubroutineType(types: !193)
!193 = !{null, !102, !53, !64}
!194 = !DISubprogram(name: "to_ap_int_base", linkageName: "_ZNK13ap_fixed_baseILi32ELi16ELb1EL9ap_q_mode5EL9ap_o_mode3ELi0EE14to_ap_int_baseEb", scope: !45, file: !46, line: 981, type: !195, isLocal: false, isDefinition: false, scopeLine: 981, flags: DIFlagPrototyped, isOptimized: false)
!195 = !DISubroutineType(types: !196)
!196 = !{!197, !102, !64}
!197 = distinct !DICompositeType(tag: DW_TAG_structure_type, name: "ap_int_base<16, true>", file: !198, line: 108, size: 16, flags: DIFlagTypePassByValue, elements: !199, templateParams: !1544, identifier: "_ZTS11ap_int_baseILi16ELb1EE")
!198 = !DIFile(filename: "/home/ishan/tools/Vitis_HLS/2022.2/common/technology/autopilot/ap_int_base.h", directory: "/home/ishan/tools/Vitis_HLS/2022.2/bin")
!199 = !{!200, !213, !214, !215, !220, !224, !227, !230, !233, !236, !239, !242, !245, !248, !251, !254, !257, !260, !263, !266, !269, !272, !275, !280, !284, !289, !290, !294, !297, !300, !303, !306, !309, !312, !315, !318, !321, !324, !327, !330, !333, !341, !344, !347, !350, !353, !356, !359, !360, !363, !366, !369, !372, !375, !378, !381, !384, !388, !389, !390, !391, !392, !395, !396, !399, !402, !403, !406, !407, !408, !409, !410, !411, !412, !415, !416, !417, !452, !453, !456, !1437, !1438, !1439, !1443, !1446, !1449, !1452, !1453, !1454, !1545, !1546, !1547, !1548, !1549, !1550, !1551, !1552, !1553, !1554, !1555}
!200 = !DIDerivedType(tag: DW_TAG_inheritance, scope: !197, baseType: !201)
!201 = distinct !DICompositeType(tag: DW_TAG_structure_type, name: "ssdm_int<16, true>", file: !50, line: 511, size: 16, flags: DIFlagTypePassByValue, elements: !202, templateParams: !211, identifier: "_ZTS8ssdm_intILi16ELb1EE")
!202 = !{!203, !204, !208}
!203 = !DIDerivedType(tag: DW_TAG_member, name: "V", scope: !201, file: !50, line: 513, baseType: !135, size: 16)
!204 = !DISubprogram(name: "ssdm_int", scope: !201, file: !50, line: 514, type: !205, isLocal: false, isDefinition: false, scopeLine: 514, flags: DIFlagPrototyped, isOptimized: false)
!205 = !DISubroutineType(types: !206)
!206 = !{null, !207}
!207 = !DIDerivedType(tag: DW_TAG_pointer_type, baseType: !201, size: 64, flags: DIFlagArtificial | DIFlagObjectPointer)
!208 = !DISubprogram(name: "ssdm_int", scope: !201, file: !50, line: 515, type: !209, isLocal: false, isDefinition: false, scopeLine: 515, flags: DIFlagPrototyped, isOptimized: false)
!209 = !DISubroutineType(types: !210)
!210 = !{null, !207, !135}
!211 = !{!212, !63}
!212 = !DITemplateValueParameter(name: "_AP_N", type: !53, value: i32 16)
!213 = !DIDerivedType(tag: DW_TAG_member, name: "width", scope: !197, file: !198, line: 130, baseType: !66, flags: DIFlagStaticMember, extraData: i32 16)
!214 = !DIDerivedType(tag: DW_TAG_member, name: "sign_flag", scope: !197, file: !198, line: 131, baseType: !118, flags: DIFlagStaticMember, extraData: i1 true)
!215 = !DISubprogram(name: "countLeadingOnes", linkageName: "_ZNK11ap_int_baseILi16ELb1EE16countLeadingOnesEv", scope: !197, file: !198, line: 110, type: !216, isLocal: false, isDefinition: false, scopeLine: 110, flags: DIFlagPrivate | DIFlagPrototyped, isOptimized: false)
!216 = !DISubroutineType(types: !217)
!217 = !{!53, !218}
!218 = !DIDerivedType(tag: DW_TAG_pointer_type, baseType: !219, size: 64, flags: DIFlagArtificial | DIFlagObjectPointer)
!219 = !DIDerivedType(tag: DW_TAG_const_type, baseType: !197)
!220 = !DISubprogram(name: "ap_int_base", scope: !197, file: !198, line: 175, type: !221, isLocal: false, isDefinition: false, scopeLine: 175, flags: DIFlagPrototyped, isOptimized: false)
!221 = !DISubroutineType(types: !222)
!222 = !{null, !223}
!223 = !DIDerivedType(tag: DW_TAG_pointer_type, baseType: !197, size: 64, flags: DIFlagArtificial | DIFlagObjectPointer)
!224 = !DISubprogram(name: "ap_int_base", scope: !197, file: !198, line: 208, type: !225, isLocal: false, isDefinition: false, scopeLine: 208, flags: DIFlagPrototyped, isOptimized: false)
!225 = !DISubroutineType(types: !226)
!226 = !{null, !223, !118}
!227 = !DISubprogram(name: "ap_int_base", scope: !197, file: !198, line: 209, type: !228, isLocal: false, isDefinition: false, scopeLine: 209, flags: DIFlagPrototyped, isOptimized: false)
!228 = !DISubroutineType(types: !229)
!229 = !{null, !223, !109}
!230 = !DISubprogram(name: "ap_int_base", scope: !197, file: !198, line: 210, type: !231, isLocal: false, isDefinition: false, scopeLine: 210, flags: DIFlagPrototyped, isOptimized: false)
!231 = !DISubroutineType(types: !232)
!232 = !{null, !223, !125}
!233 = !DISubprogram(name: "ap_int_base", scope: !197, file: !198, line: 211, type: !234, isLocal: false, isDefinition: false, scopeLine: 211, flags: DIFlagPrototyped, isOptimized: false)
!234 = !DISubroutineType(types: !235)
!235 = !{null, !223, !129}
!236 = !DISubprogram(name: "ap_int_base", scope: !197, file: !198, line: 212, type: !237, isLocal: false, isDefinition: false, scopeLine: 212, flags: DIFlagPrototyped, isOptimized: false)
!237 = !DISubroutineType(types: !238)
!238 = !{null, !223, !134}
!239 = !DISubprogram(name: "ap_int_base", scope: !197, file: !198, line: 213, type: !240, isLocal: false, isDefinition: false, scopeLine: 213, flags: DIFlagPrototyped, isOptimized: false)
!240 = !DISubroutineType(types: !241)
!241 = !{null, !223, !139}
!242 = !DISubprogram(name: "ap_int_base", scope: !197, file: !198, line: 214, type: !243, isLocal: false, isDefinition: false, scopeLine: 214, flags: DIFlagPrototyped, isOptimized: false)
!243 = !DISubroutineType(types: !244)
!244 = !{null, !223, !66}
!245 = !DISubprogram(name: "ap_int_base", scope: !197, file: !198, line: 215, type: !246, isLocal: false, isDefinition: false, scopeLine: 215, flags: DIFlagPrototyped, isOptimized: false)
!246 = !DISubroutineType(types: !247)
!247 = !{null, !223, !147}
!248 = !DISubprogram(name: "ap_int_base", scope: !197, file: !198, line: 216, type: !249, isLocal: false, isDefinition: false, scopeLine: 216, flags: DIFlagPrototyped, isOptimized: false)
!249 = !DISubroutineType(types: !250)
!250 = !{null, !223, !152}
!251 = !DISubprogram(name: "ap_int_base", scope: !197, file: !198, line: 217, type: !252, isLocal: false, isDefinition: false, scopeLine: 217, flags: DIFlagPrototyped, isOptimized: false)
!252 = !DISubroutineType(types: !253)
!253 = !{null, !223, !157}
!254 = !DISubprogram(name: "ap_int_base", scope: !197, file: !198, line: 218, type: !255, isLocal: false, isDefinition: false, scopeLine: 218, flags: DIFlagPrototyped, isOptimized: false)
!255 = !DISubroutineType(types: !256)
!256 = !{null, !223, !162}
!257 = !DISubprogram(name: "ap_int_base", scope: !197, file: !198, line: 219, type: !258, isLocal: false, isDefinition: false, scopeLine: 219, flags: DIFlagPrototyped, isOptimized: false)
!258 = !DISubroutineType(types: !259)
!259 = !{null, !223, !168}
!260 = !DISubprogram(name: "ap_int_base", scope: !197, file: !198, line: 224, type: !261, isLocal: false, isDefinition: false, scopeLine: 224, flags: DIFlagPrototyped, isOptimized: false)
!261 = !DISubroutineType(types: !262)
!262 = !{null, !223, !182}
!263 = !DISubprogram(name: "ap_int_base", scope: !197, file: !198, line: 230, type: !264, isLocal: false, isDefinition: false, scopeLine: 230, flags: DIFlagPrototyped, isOptimized: false)
!264 = !DISubroutineType(types: !265)
!265 = !{null, !223, !178}
!266 = !DISubprogram(name: "ap_int_base", scope: !197, file: !198, line: 289, type: !267, isLocal: false, isDefinition: false, scopeLine: 289, flags: DIFlagPrototyped, isOptimized: false)
!267 = !DISubroutineType(types: !268)
!268 = !{null, !223, !174}
!269 = !DISubprogram(name: "ap_int_base", scope: !197, file: !198, line: 385, type: !270, isLocal: false, isDefinition: false, scopeLine: 385, flags: DIFlagPrototyped, isOptimized: false)
!270 = !DISubroutineType(types: !271)
!271 = !{null, !223, !108}
!272 = !DISubprogram(name: "ap_int_base", scope: !197, file: !198, line: 391, type: !273, isLocal: false, isDefinition: false, scopeLine: 391, flags: DIFlagPrototyped, isOptimized: false)
!273 = !DISubroutineType(types: !274)
!274 = !{null, !223, !108, !114}
!275 = !DISubprogram(name: "read", linkageName: "_ZNV11ap_int_baseILi16ELb1EE4readEv", scope: !197, file: !198, line: 413, type: !276, isLocal: false, isDefinition: false, scopeLine: 413, flags: DIFlagPrototyped, isOptimized: false)
!276 = !DISubroutineType(types: !277)
!277 = !{!197, !278}
!278 = !DIDerivedType(tag: DW_TAG_pointer_type, baseType: !279, size: 64, flags: DIFlagArtificial | DIFlagObjectPointer)
!279 = !DIDerivedType(tag: DW_TAG_volatile_type, baseType: !197)
!280 = !DISubprogram(name: "write", linkageName: "_ZNV11ap_int_baseILi16ELb1EE5writeERKS0_", scope: !197, file: !198, line: 420, type: !281, isLocal: false, isDefinition: false, scopeLine: 420, flags: DIFlagPrototyped, isOptimized: false)
!281 = !DISubroutineType(types: !282)
!282 = !{null, !278, !283}
!283 = !DIDerivedType(tag: DW_TAG_reference_type, baseType: !219, size: 64)
!284 = !DISubprogram(name: "operator=", linkageName: "_ZNV11ap_int_baseILi16ELb1EEaSERVKS0_", scope: !197, file: !198, line: 432, type: !285, isLocal: false, isDefinition: false, scopeLine: 432, flags: DIFlagPrototyped, isOptimized: false)
!285 = !DISubroutineType(types: !286)
!286 = !{null, !278, !287}
!287 = !DIDerivedType(tag: DW_TAG_reference_type, baseType: !288, size: 64)
!288 = !DIDerivedType(tag: DW_TAG_const_type, baseType: !279)
!289 = !DISubprogram(name: "operator=", linkageName: "_ZNV11ap_int_baseILi16ELb1EEaSERKS0_", scope: !197, file: !198, line: 442, type: !281, isLocal: false, isDefinition: false, scopeLine: 442, flags: DIFlagPrototyped, isOptimized: false)
!290 = !DISubprogram(name: "operator=", linkageName: "_ZN11ap_int_baseILi16ELb1EEaSERVKS0_", scope: !197, file: !198, line: 459, type: !291, isLocal: false, isDefinition: false, scopeLine: 459, flags: DIFlagPrototyped, isOptimized: false)
!291 = !DISubroutineType(types: !292)
!292 = !{!293, !223, !287}
!293 = !DIDerivedType(tag: DW_TAG_reference_type, baseType: !197, size: 64)
!294 = !DISubprogram(name: "operator=", linkageName: "_ZN11ap_int_baseILi16ELb1EEaSERKS0_", scope: !197, file: !198, line: 465, type: !295, isLocal: false, isDefinition: false, scopeLine: 465, flags: DIFlagPrototyped, isOptimized: false)
!295 = !DISubroutineType(types: !296)
!296 = !{!293, !223, !283}
!297 = !DISubprogram(name: "operator=", linkageName: "_ZN11ap_int_baseILi16ELb1EEaSEb", scope: !197, file: !198, line: 479, type: !298, isLocal: false, isDefinition: false, scopeLine: 479, flags: DIFlagPrototyped, isOptimized: false)
!298 = !DISubroutineType(types: !299)
!299 = !{!293, !223, !64}
!300 = !DISubprogram(name: "operator=", linkageName: "_ZN11ap_int_baseILi16ELb1EEaSEc", scope: !197, file: !198, line: 480, type: !301, isLocal: false, isDefinition: false, scopeLine: 480, flags: DIFlagPrototyped, isOptimized: false)
!301 = !DISubroutineType(types: !302)
!302 = !{!293, !223, !110}
!303 = !DISubprogram(name: "operator=", linkageName: "_ZN11ap_int_baseILi16ELb1EEaSEa", scope: !197, file: !198, line: 481, type: !304, isLocal: false, isDefinition: false, scopeLine: 481, flags: DIFlagPrototyped, isOptimized: false)
!304 = !DISubroutineType(types: !305)
!305 = !{!293, !223, !114}
!306 = !DISubprogram(name: "operator=", linkageName: "_ZN11ap_int_baseILi16ELb1EEaSEh", scope: !197, file: !198, line: 482, type: !307, isLocal: false, isDefinition: false, scopeLine: 482, flags: DIFlagPrototyped, isOptimized: false)
!307 = !DISubroutineType(types: !308)
!308 = !{!293, !223, !130}
!309 = !DISubprogram(name: "operator=", linkageName: "_ZN11ap_int_baseILi16ELb1EEaSEs", scope: !197, file: !198, line: 483, type: !310, isLocal: false, isDefinition: false, scopeLine: 483, flags: DIFlagPrototyped, isOptimized: false)
!310 = !DISubroutineType(types: !311)
!311 = !{!293, !223, !135}
!312 = !DISubprogram(name: "operator=", linkageName: "_ZN11ap_int_baseILi16ELb1EEaSEt", scope: !197, file: !198, line: 484, type: !313, isLocal: false, isDefinition: false, scopeLine: 484, flags: DIFlagPrototyped, isOptimized: false)
!313 = !DISubroutineType(types: !314)
!314 = !{!293, !223, !140}
!315 = !DISubprogram(name: "operator=", linkageName: "_ZN11ap_int_baseILi16ELb1EEaSEi", scope: !197, file: !198, line: 485, type: !316, isLocal: false, isDefinition: false, scopeLine: 485, flags: DIFlagPrototyped, isOptimized: false)
!316 = !DISubroutineType(types: !317)
!317 = !{!293, !223, !53}
!318 = !DISubprogram(name: "operator=", linkageName: "_ZN11ap_int_baseILi16ELb1EEaSEj", scope: !197, file: !198, line: 486, type: !319, isLocal: false, isDefinition: false, scopeLine: 486, flags: DIFlagPrototyped, isOptimized: false)
!319 = !DISubroutineType(types: !320)
!320 = !{!293, !223, !148}
!321 = !DISubprogram(name: "operator=", linkageName: "_ZN11ap_int_baseILi16ELb1EEaSEl", scope: !197, file: !198, line: 487, type: !322, isLocal: false, isDefinition: false, scopeLine: 487, flags: DIFlagPrototyped, isOptimized: false)
!322 = !DISubroutineType(types: !323)
!323 = !{!293, !223, !153}
!324 = !DISubprogram(name: "operator=", linkageName: "_ZN11ap_int_baseILi16ELb1EEaSEm", scope: !197, file: !198, line: 488, type: !325, isLocal: false, isDefinition: false, scopeLine: 488, flags: DIFlagPrototyped, isOptimized: false)
!325 = !DISubroutineType(types: !326)
!326 = !{!293, !223, !158}
!327 = !DISubprogram(name: "operator=", linkageName: "_ZN11ap_int_baseILi16ELb1EEaSEx", scope: !197, file: !198, line: 489, type: !328, isLocal: false, isDefinition: false, scopeLine: 489, flags: DIFlagPrototyped, isOptimized: false)
!328 = !DISubroutineType(types: !329)
!329 = !{!293, !223, !163}
!330 = !DISubprogram(name: "operator=", linkageName: "_ZN11ap_int_baseILi16ELb1EEaSEy", scope: !197, file: !198, line: 490, type: !331, isLocal: false, isDefinition: false, scopeLine: 490, flags: DIFlagPrototyped, isOptimized: false)
!331 = !DISubroutineType(types: !332)
!332 = !{!293, !223, !169}
!333 = !DISubprogram(name: "operator long long", linkageName: "_ZNK11ap_int_baseILi16ELb1EEcvxEv", scope: !197, file: !198, line: 541, type: !334, isLocal: false, isDefinition: false, scopeLine: 541, flags: DIFlagPrototyped, isOptimized: false)
!334 = !DISubroutineType(types: !335)
!335 = !{!336, !218}
!336 = !DIDerivedType(tag: DW_TAG_typedef, name: "RetType", scope: !197, file: !198, line: 128, baseType: !337)
!337 = !DIDerivedType(tag: DW_TAG_typedef, name: "Type", scope: !338, file: !198, line: 46, baseType: !163)
!338 = distinct !DICompositeType(tag: DW_TAG_structure_type, name: "retval<8, true>", file: !198, line: 45, size: 8, flags: DIFlagTypePassByValue, elements: !4, templateParams: !339, identifier: "_ZTS6retvalILi8ELb1EE")
!339 = !{!340, !63}
!340 = !DITemplateValueParameter(name: "_AP_N", type: !53, value: i32 8)
!341 = !DISubprogram(name: "to_bool", linkageName: "_ZNK11ap_int_baseILi16ELb1EE7to_boolEv", scope: !197, file: !198, line: 546, type: !342, isLocal: false, isDefinition: false, scopeLine: 546, flags: DIFlagPrototyped, isOptimized: false)
!342 = !DISubroutineType(types: !343)
!343 = !{!64, !218}
!344 = !DISubprogram(name: "to_char", linkageName: "_ZNK11ap_int_baseILi16ELb1EE7to_charEv", scope: !197, file: !198, line: 547, type: !345, isLocal: false, isDefinition: false, scopeLine: 547, flags: DIFlagPrototyped, isOptimized: false)
!345 = !DISubroutineType(types: !346)
!346 = !{!110, !218}
!347 = !DISubprogram(name: "to_schar", linkageName: "_ZNK11ap_int_baseILi16ELb1EE8to_scharEv", scope: !197, file: !198, line: 548, type: !348, isLocal: false, isDefinition: false, scopeLine: 548, flags: DIFlagPrototyped, isOptimized: false)
!348 = !DISubroutineType(types: !349)
!349 = !{!114, !218}
!350 = !DISubprogram(name: "to_uchar", linkageName: "_ZNK11ap_int_baseILi16ELb1EE8to_ucharEv", scope: !197, file: !198, line: 549, type: !351, isLocal: false, isDefinition: false, scopeLine: 549, flags: DIFlagPrototyped, isOptimized: false)
!351 = !DISubroutineType(types: !352)
!352 = !{!130, !218}
!353 = !DISubprogram(name: "to_short", linkageName: "_ZNK11ap_int_baseILi16ELb1EE8to_shortEv", scope: !197, file: !198, line: 550, type: !354, isLocal: false, isDefinition: false, scopeLine: 550, flags: DIFlagPrototyped, isOptimized: false)
!354 = !DISubroutineType(types: !355)
!355 = !{!135, !218}
!356 = !DISubprogram(name: "to_ushort", linkageName: "_ZNK11ap_int_baseILi16ELb1EE9to_ushortEv", scope: !197, file: !198, line: 551, type: !357, isLocal: false, isDefinition: false, scopeLine: 551, flags: DIFlagPrototyped, isOptimized: false)
!357 = !DISubroutineType(types: !358)
!358 = !{!140, !218}
!359 = !DISubprogram(name: "to_int", linkageName: "_ZNK11ap_int_baseILi16ELb1EE6to_intEv", scope: !197, file: !198, line: 552, type: !216, isLocal: false, isDefinition: false, scopeLine: 552, flags: DIFlagPrototyped, isOptimized: false)
!360 = !DISubprogram(name: "to_uint", linkageName: "_ZNK11ap_int_baseILi16ELb1EE7to_uintEv", scope: !197, file: !198, line: 553, type: !361, isLocal: false, isDefinition: false, scopeLine: 553, flags: DIFlagPrototyped, isOptimized: false)
!361 = !DISubroutineType(types: !362)
!362 = !{!148, !218}
!363 = !DISubprogram(name: "to_long", linkageName: "_ZNK11ap_int_baseILi16ELb1EE7to_longEv", scope: !197, file: !198, line: 554, type: !364, isLocal: false, isDefinition: false, scopeLine: 554, flags: DIFlagPrototyped, isOptimized: false)
!364 = !DISubroutineType(types: !365)
!365 = !{!153, !218}
!366 = !DISubprogram(name: "to_ulong", linkageName: "_ZNK11ap_int_baseILi16ELb1EE8to_ulongEv", scope: !197, file: !198, line: 555, type: !367, isLocal: false, isDefinition: false, scopeLine: 555, flags: DIFlagPrototyped, isOptimized: false)
!367 = !DISubroutineType(types: !368)
!368 = !{!158, !218}
!369 = !DISubprogram(name: "to_int64", linkageName: "_ZNK11ap_int_baseILi16ELb1EE8to_int64Ev", scope: !197, file: !198, line: 556, type: !370, isLocal: false, isDefinition: false, scopeLine: 556, flags: DIFlagPrototyped, isOptimized: false)
!370 = !DISubroutineType(types: !371)
!371 = !{!163, !218}
!372 = !DISubprogram(name: "to_uint64", linkageName: "_ZNK11ap_int_baseILi16ELb1EE9to_uint64Ev", scope: !197, file: !198, line: 557, type: !373, isLocal: false, isDefinition: false, scopeLine: 557, flags: DIFlagPrototyped, isOptimized: false)
!373 = !DISubroutineType(types: !374)
!374 = !{!169, !218}
!375 = !DISubprogram(name: "to_half", linkageName: "_ZNK11ap_int_baseILi16ELb1EE7to_halfEv", scope: !197, file: !198, line: 558, type: !376, isLocal: false, isDefinition: false, scopeLine: 558, flags: DIFlagPrototyped, isOptimized: false)
!376 = !DISubroutineType(types: !377)
!377 = !{!182, !218}
!378 = !DISubprogram(name: "to_float", linkageName: "_ZNK11ap_int_baseILi16ELb1EE8to_floatEv", scope: !197, file: !198, line: 559, type: !379, isLocal: false, isDefinition: false, scopeLine: 559, flags: DIFlagPrototyped, isOptimized: false)
!379 = !DISubroutineType(types: !380)
!380 = !{!178, !218}
!381 = !DISubprogram(name: "to_double", linkageName: "_ZNK11ap_int_baseILi16ELb1EE9to_doubleEv", scope: !197, file: !198, line: 560, type: !382, isLocal: false, isDefinition: false, scopeLine: 560, flags: DIFlagPrototyped, isOptimized: false)
!382 = !DISubroutineType(types: !383)
!383 = !{!174, !218}
!384 = !DISubprogram(name: "length", linkageName: "_ZNVK11ap_int_baseILi16ELb1EE6lengthEv", scope: !197, file: !198, line: 584, type: !385, isLocal: false, isDefinition: false, scopeLine: 584, flags: DIFlagPrototyped, isOptimized: false)
!385 = !DISubroutineType(types: !386)
!386 = !{!53, !387}
!387 = !DIDerivedType(tag: DW_TAG_pointer_type, baseType: !288, size: 64, flags: DIFlagArtificial | DIFlagObjectPointer)
!388 = !DISubprogram(name: "length", linkageName: "_ZNK11ap_int_baseILi16ELb1EE6lengthEv", scope: !197, file: !198, line: 585, type: !216, isLocal: false, isDefinition: false, scopeLine: 585, flags: DIFlagPrototyped, isOptimized: false)
!389 = !DISubprogram(name: "iszero", linkageName: "_ZNK11ap_int_baseILi16ELb1EE6iszeroEv", scope: !197, file: !198, line: 588, type: !342, isLocal: false, isDefinition: false, scopeLine: 588, flags: DIFlagPrototyped, isOptimized: false)
!390 = !DISubprogram(name: "is_zero", linkageName: "_ZNK11ap_int_baseILi16ELb1EE7is_zeroEv", scope: !197, file: !198, line: 591, type: !342, isLocal: false, isDefinition: false, scopeLine: 591, flags: DIFlagPrototyped, isOptimized: false)
!391 = !DISubprogram(name: "sign", linkageName: "_ZNK11ap_int_baseILi16ELb1EE4signEv", scope: !197, file: !198, line: 594, type: !342, isLocal: false, isDefinition: false, scopeLine: 594, flags: DIFlagPrototyped, isOptimized: false)
!392 = !DISubprogram(name: "clear", linkageName: "_ZN11ap_int_baseILi16ELb1EE5clearEi", scope: !197, file: !198, line: 603, type: !393, isLocal: false, isDefinition: false, scopeLine: 603, flags: DIFlagPrototyped, isOptimized: false)
!393 = !DISubroutineType(types: !394)
!394 = !{null, !223, !53}
!395 = !DISubprogram(name: "invert", linkageName: "_ZN11ap_int_baseILi16ELb1EE6invertEi", scope: !197, file: !198, line: 609, type: !393, isLocal: false, isDefinition: false, scopeLine: 609, flags: DIFlagPrototyped, isOptimized: false)
!396 = !DISubprogram(name: "test", linkageName: "_ZNK11ap_int_baseILi16ELb1EE4testEi", scope: !197, file: !198, line: 618, type: !397, isLocal: false, isDefinition: false, scopeLine: 618, flags: DIFlagPrototyped, isOptimized: false)
!397 = !DISubroutineType(types: !398)
!398 = !{!64, !218, !53}
!399 = !DISubprogram(name: "get", linkageName: "_ZN11ap_int_baseILi16ELb1EE3getEv", scope: !197, file: !198, line: 624, type: !400, isLocal: false, isDefinition: false, scopeLine: 624, flags: DIFlagPrototyped, isOptimized: false)
!400 = !DISubroutineType(types: !401)
!401 = !{!293, !223}
!402 = !DISubprogram(name: "set", linkageName: "_ZN11ap_int_baseILi16ELb1EE3setEi", scope: !197, file: !198, line: 627, type: !393, isLocal: false, isDefinition: false, scopeLine: 627, flags: DIFlagPrototyped, isOptimized: false)
!403 = !DISubprogram(name: "set", linkageName: "_ZN11ap_int_baseILi16ELb1EE3setEib", scope: !197, file: !198, line: 633, type: !404, isLocal: false, isDefinition: false, scopeLine: 633, flags: DIFlagPrototyped, isOptimized: false)
!404 = !DISubroutineType(types: !405)
!405 = !{null, !223, !53, !64}
!406 = !DISubprogram(name: "lrotate", linkageName: "_ZN11ap_int_baseILi16ELb1EE7lrotateEi", scope: !197, file: !198, line: 640, type: !316, isLocal: false, isDefinition: false, scopeLine: 640, flags: DIFlagPrototyped, isOptimized: false)
!407 = !DISubprogram(name: "rrotate", linkageName: "_ZN11ap_int_baseILi16ELb1EE7rrotateEi", scope: !197, file: !198, line: 655, type: !316, isLocal: false, isDefinition: false, scopeLine: 655, flags: DIFlagPrototyped, isOptimized: false)
!408 = !DISubprogram(name: "reverse", linkageName: "_ZN11ap_int_baseILi16ELb1EE7reverseEv", scope: !197, file: !198, line: 670, type: !400, isLocal: false, isDefinition: false, scopeLine: 670, flags: DIFlagPrototyped, isOptimized: false)
!409 = !DISubprogram(name: "set_bit", linkageName: "_ZN11ap_int_baseILi16ELb1EE7set_bitEib", scope: !197, file: !198, line: 676, type: !404, isLocal: false, isDefinition: false, scopeLine: 676, flags: DIFlagPrototyped, isOptimized: false)
!410 = !DISubprogram(name: "get_bit", linkageName: "_ZNK11ap_int_baseILi16ELb1EE7get_bitEi", scope: !197, file: !198, line: 681, type: !397, isLocal: false, isDefinition: false, scopeLine: 681, flags: DIFlagPrototyped, isOptimized: false)
!411 = !DISubprogram(name: "b_not", linkageName: "_ZN11ap_int_baseILi16ELb1EE5b_notEv", scope: !197, file: !198, line: 686, type: !221, isLocal: false, isDefinition: false, scopeLine: 686, flags: DIFlagPrototyped, isOptimized: false)
!412 = !DISubprogram(name: "checkOverflowCsim", linkageName: "_ZNK11ap_int_baseILi16ELb1EE17checkOverflowCsimEibb", scope: !197, file: !198, line: 760, type: !413, isLocal: false, isDefinition: false, scopeLine: 760, flags: DIFlagPrototyped, isOptimized: false)
!413 = !DISubroutineType(types: !414)
!414 = !{!64, !218, !53, !64, !64}
!415 = !DISubprogram(name: "operator++", linkageName: "_ZN11ap_int_baseILi16ELb1EEppEv", scope: !197, file: !198, line: 865, type: !400, isLocal: false, isDefinition: false, scopeLine: 865, flags: DIFlagPrototyped, isOptimized: false)
!416 = !DISubprogram(name: "operator--", linkageName: "_ZN11ap_int_baseILi16ELb1EEmmEv", scope: !197, file: !198, line: 869, type: !400, isLocal: false, isDefinition: false, scopeLine: 869, flags: DIFlagPrototyped, isOptimized: false)
!417 = !DISubprogram(name: "operator++", linkageName: "_ZN11ap_int_baseILi16ELb1EEppEi", scope: !197, file: !198, line: 877, type: !418, isLocal: false, isDefinition: false, scopeLine: 877, flags: DIFlagPrototyped, isOptimized: false)
!418 = !DISubroutineType(types: !419)
!419 = !{!420, !223, !53}
!420 = !DIDerivedType(tag: DW_TAG_const_type, baseType: !421)
!421 = !DIDerivedType(tag: DW_TAG_typedef, name: "arg1", scope: !422, file: !198, line: 167, baseType: !426)
!422 = distinct !DICompositeType(tag: DW_TAG_structure_type, name: "RType<16, true>", scope: !197, file: !198, line: 134, size: 8, flags: DIFlagTypePassByValue, elements: !4, templateParams: !423, identifier: "_ZTSN11ap_int_baseILi16ELb1EE5RTypeILi16ELb1EEE")
!423 = !{!424, !425}
!424 = !DITemplateValueParameter(name: "_AP_W2", type: !53, value: i32 16)
!425 = !DITemplateValueParameter(name: "_AP_S2", type: !64, value: i8 1)
!426 = !DIDerivedType(tag: DW_TAG_typedef, name: "type", scope: !427, file: !198, line: 103, baseType: !428)
!427 = distinct !DICompositeType(tag: DW_TAG_structure_type, name: "_ap_int_factory<16, true>", file: !198, line: 103, size: 8, flags: DIFlagTypePassByValue, elements: !4, templateParams: !423, identifier: "_ZTS15_ap_int_factoryILi16ELb1EE")
!428 = distinct !DICompositeType(tag: DW_TAG_structure_type, name: "ap_int<16>", file: !429, line: 18, size: 16, flags: DIFlagTypePassByValue, elements: !430, templateParams: !450, identifier: "_ZTS6ap_intILi16EE")
!429 = !DIFile(filename: "/wrk/ci/prod/2022.2/hls_product/continuous/608/2022.2/src/shared/hls/clib/include/header_files/ap_int.h", directory: "/wrk/ci/prod/2022.2/hls_product/continuous/608/2022.2/src/shared/hls/clib/hlsmath")
!430 = !{!431, !432, !436, !439, !444}
!431 = !DIDerivedType(tag: DW_TAG_inheritance, scope: !428, baseType: !197)
!432 = !DISubprogram(name: "ap_int", scope: !428, file: !429, line: 140, type: !433, isLocal: false, isDefinition: false, scopeLine: 140, flags: DIFlagPrototyped, isOptimized: false)
!433 = !DISubroutineType(types: !434)
!434 = !{null, !435, !174}
!435 = !DIDerivedType(tag: DW_TAG_pointer_type, baseType: !428, size: 64, flags: DIFlagArtificial | DIFlagObjectPointer)
!436 = !DISubprogram(name: "ap_int", scope: !428, file: !429, line: 141, type: !437, isLocal: false, isDefinition: false, scopeLine: 141, flags: DIFlagPrototyped, isOptimized: false)
!437 = !DISubroutineType(types: !438)
!438 = !{null, !435, !178}
!439 = !DISubprogram(name: "ap_int", scope: !428, file: !429, line: 142, type: !440, isLocal: false, isDefinition: false, scopeLine: 142, flags: DIFlagPrototyped, isOptimized: false)
!440 = !DISubroutineType(types: !441)
!441 = !{null, !435, !442}
!442 = !DIDerivedType(tag: DW_TAG_typedef, name: "half", file: !443, line: 613, baseType: !183)
!443 = !DIFile(filename: "/wrk/ci/prod/2022.2/hls_product/continuous/608/2022.2/src/shared/hls/clib/include/header_files/ap_common.h", directory: "/wrk/ci/prod/2022.2/hls_product/continuous/608/2022.2/src/shared/hls/clib/hlsmath")
!444 = !DISubprogram(name: "operator=", linkageName: "_ZN6ap_intILi16EEaSERKS0_", scope: !428, file: !429, line: 152, type: !445, isLocal: false, isDefinition: false, scopeLine: 152, flags: DIFlagPrototyped, isOptimized: false)
!445 = !DISubroutineType(types: !446)
!446 = !{!447, !435, !448}
!447 = !DIDerivedType(tag: DW_TAG_reference_type, baseType: !428, size: 64)
!448 = !DIDerivedType(tag: DW_TAG_reference_type, baseType: !449, size: 64)
!449 = !DIDerivedType(tag: DW_TAG_const_type, baseType: !428)
!450 = !{!451}
!451 = !DITemplateValueParameter(name: "_AP_W", type: !53, value: i32 16)
!452 = !DISubprogram(name: "operator--", linkageName: "_ZN11ap_int_baseILi16ELb1EEmmEi", scope: !197, file: !198, line: 882, type: !418, isLocal: false, isDefinition: false, scopeLine: 882, flags: DIFlagPrototyped, isOptimized: false)
!453 = !DISubprogram(name: "operator+", linkageName: "_ZNK11ap_int_baseILi16ELb1EEpsEv", scope: !197, file: !198, line: 891, type: !454, isLocal: false, isDefinition: false, scopeLine: 891, flags: DIFlagPrototyped, isOptimized: false)
!454 = !DISubroutineType(types: !455)
!455 = !{!421, !218}
!456 = !DISubprogram(name: "operator-", linkageName: "_ZNK11ap_int_baseILi16ELb1EEngEv", scope: !197, file: !198, line: 894, type: !457, isLocal: false, isDefinition: false, scopeLine: 894, flags: DIFlagPrototyped, isOptimized: false)
!457 = !DISubroutineType(types: !458)
!458 = !{!459, !218}
!459 = !DIDerivedType(tag: DW_TAG_typedef, name: "minus", scope: !460, file: !198, line: 163, baseType: !464)
!460 = distinct !DICompositeType(tag: DW_TAG_structure_type, name: "RType<1, false>", scope: !197, file: !198, line: 134, size: 8, flags: DIFlagTypePassByValue, elements: !4, templateParams: !461, identifier: "_ZTSN11ap_int_baseILi16ELb1EE5RTypeILi1ELb0EEE")
!461 = !{!462, !463}
!462 = !DITemplateValueParameter(name: "_AP_W2", type: !53, value: i32 1)
!463 = !DITemplateValueParameter(name: "_AP_S2", type: !64, value: i8 0)
!464 = !DIDerivedType(tag: DW_TAG_typedef, name: "type", scope: !465, file: !198, line: 103, baseType: !468)
!465 = distinct !DICompositeType(tag: DW_TAG_structure_type, name: "_ap_int_factory<17, true>", file: !198, line: 103, size: 8, flags: DIFlagTypePassByValue, elements: !4, templateParams: !466, identifier: "_ZTS15_ap_int_factoryILi17ELb1EE")
!466 = !{!467, !425}
!467 = !DITemplateValueParameter(name: "_AP_W2", type: !53, value: i32 17)
!468 = distinct !DICompositeType(tag: DW_TAG_structure_type, name: "ap_int<17>", file: !429, line: 18, size: 32, flags: DIFlagTypePassByValue, elements: !469, templateParams: !1436, identifier: "_ZTS6ap_intILi17EE")
!469 = !{!470, !1420, !1424, !1427, !1430}
!470 = !DIDerivedType(tag: DW_TAG_inheritance, scope: !468, baseType: !471)
!471 = distinct !DICompositeType(tag: DW_TAG_structure_type, name: "ap_int_base<17, true>", file: !198, line: 108, size: 32, flags: DIFlagTypePassByValue, elements: !472, templateParams: !1405, identifier: "_ZTS11ap_int_baseILi17ELb1EE")
!472 = !{!473, !487, !488, !489, !494, !498, !501, !504, !507, !510, !513, !516, !519, !522, !525, !528, !531, !534, !537, !540, !543, !546, !549, !554, !558, !563, !564, !568, !571, !574, !577, !580, !583, !586, !589, !592, !595, !598, !601, !604, !607, !611, !614, !617, !620, !623, !626, !629, !630, !633, !636, !639, !642, !645, !648, !651, !654, !658, !659, !660, !661, !662, !665, !666, !669, !672, !673, !676, !677, !678, !679, !680, !681, !682, !685, !686, !687, !693, !694, !697, !1298, !1299, !1300, !1304, !1307, !1310, !1313, !1314, !1315, !1407, !1408, !1409, !1410, !1411, !1412, !1413, !1414, !1415, !1416, !1417}
!473 = !DIDerivedType(tag: DW_TAG_inheritance, scope: !471, baseType: !474)
!474 = distinct !DICompositeType(tag: DW_TAG_structure_type, name: "ssdm_int<17, true>", file: !50, line: 511, size: 32, flags: DIFlagTypePassByValue, elements: !475, templateParams: !485, identifier: "_ZTS8ssdm_intILi17ELb1EE")
!475 = !{!476, !478, !482}
!476 = !DIDerivedType(tag: DW_TAG_member, name: "V", scope: !474, file: !50, line: 513, baseType: !477, size: 17, align: 32)
!477 = !DIBasicType(name: "int17", size: 17, encoding: DW_ATE_signed)
!478 = !DISubprogram(name: "ssdm_int", scope: !474, file: !50, line: 514, type: !479, isLocal: false, isDefinition: false, scopeLine: 514, flags: DIFlagPrototyped, isOptimized: false)
!479 = !DISubroutineType(types: !480)
!480 = !{null, !481}
!481 = !DIDerivedType(tag: DW_TAG_pointer_type, baseType: !474, size: 64, flags: DIFlagArtificial | DIFlagObjectPointer)
!482 = !DISubprogram(name: "ssdm_int", scope: !474, file: !50, line: 515, type: !483, isLocal: false, isDefinition: false, scopeLine: 515, flags: DIFlagPrototyped, isOptimized: false)
!483 = !DISubroutineType(types: !484)
!484 = !{null, !481, !477}
!485 = !{!486, !63}
!486 = !DITemplateValueParameter(name: "_AP_N", type: !53, value: i32 17)
!487 = !DIDerivedType(tag: DW_TAG_member, name: "width", scope: !471, file: !198, line: 130, baseType: !66, flags: DIFlagStaticMember, extraData: i32 17)
!488 = !DIDerivedType(tag: DW_TAG_member, name: "sign_flag", scope: !471, file: !198, line: 131, baseType: !118, flags: DIFlagStaticMember, extraData: i1 true)
!489 = !DISubprogram(name: "countLeadingOnes", linkageName: "_ZNK11ap_int_baseILi17ELb1EE16countLeadingOnesEv", scope: !471, file: !198, line: 110, type: !490, isLocal: false, isDefinition: false, scopeLine: 110, flags: DIFlagPrivate | DIFlagPrototyped, isOptimized: false)
!490 = !DISubroutineType(types: !491)
!491 = !{!53, !492}
!492 = !DIDerivedType(tag: DW_TAG_pointer_type, baseType: !493, size: 64, flags: DIFlagArtificial | DIFlagObjectPointer)
!493 = !DIDerivedType(tag: DW_TAG_const_type, baseType: !471)
!494 = !DISubprogram(name: "ap_int_base", scope: !471, file: !198, line: 175, type: !495, isLocal: false, isDefinition: false, scopeLine: 175, flags: DIFlagPrototyped, isOptimized: false)
!495 = !DISubroutineType(types: !496)
!496 = !{null, !497}
!497 = !DIDerivedType(tag: DW_TAG_pointer_type, baseType: !471, size: 64, flags: DIFlagArtificial | DIFlagObjectPointer)
!498 = !DISubprogram(name: "ap_int_base", scope: !471, file: !198, line: 208, type: !499, isLocal: false, isDefinition: false, scopeLine: 208, flags: DIFlagPrototyped, isOptimized: false)
!499 = !DISubroutineType(types: !500)
!500 = !{null, !497, !118}
!501 = !DISubprogram(name: "ap_int_base", scope: !471, file: !198, line: 209, type: !502, isLocal: false, isDefinition: false, scopeLine: 209, flags: DIFlagPrototyped, isOptimized: false)
!502 = !DISubroutineType(types: !503)
!503 = !{null, !497, !109}
!504 = !DISubprogram(name: "ap_int_base", scope: !471, file: !198, line: 210, type: !505, isLocal: false, isDefinition: false, scopeLine: 210, flags: DIFlagPrototyped, isOptimized: false)
!505 = !DISubroutineType(types: !506)
!506 = !{null, !497, !125}
!507 = !DISubprogram(name: "ap_int_base", scope: !471, file: !198, line: 211, type: !508, isLocal: false, isDefinition: false, scopeLine: 211, flags: DIFlagPrototyped, isOptimized: false)
!508 = !DISubroutineType(types: !509)
!509 = !{null, !497, !129}
!510 = !DISubprogram(name: "ap_int_base", scope: !471, file: !198, line: 212, type: !511, isLocal: false, isDefinition: false, scopeLine: 212, flags: DIFlagPrototyped, isOptimized: false)
!511 = !DISubroutineType(types: !512)
!512 = !{null, !497, !134}
!513 = !DISubprogram(name: "ap_int_base", scope: !471, file: !198, line: 213, type: !514, isLocal: false, isDefinition: false, scopeLine: 213, flags: DIFlagPrototyped, isOptimized: false)
!514 = !DISubroutineType(types: !515)
!515 = !{null, !497, !139}
!516 = !DISubprogram(name: "ap_int_base", scope: !471, file: !198, line: 214, type: !517, isLocal: false, isDefinition: false, scopeLine: 214, flags: DIFlagPrototyped, isOptimized: false)
!517 = !DISubroutineType(types: !518)
!518 = !{null, !497, !66}
!519 = !DISubprogram(name: "ap_int_base", scope: !471, file: !198, line: 215, type: !520, isLocal: false, isDefinition: false, scopeLine: 215, flags: DIFlagPrototyped, isOptimized: false)
!520 = !DISubroutineType(types: !521)
!521 = !{null, !497, !147}
!522 = !DISubprogram(name: "ap_int_base", scope: !471, file: !198, line: 216, type: !523, isLocal: false, isDefinition: false, scopeLine: 216, flags: DIFlagPrototyped, isOptimized: false)
!523 = !DISubroutineType(types: !524)
!524 = !{null, !497, !152}
!525 = !DISubprogram(name: "ap_int_base", scope: !471, file: !198, line: 217, type: !526, isLocal: false, isDefinition: false, scopeLine: 217, flags: DIFlagPrototyped, isOptimized: false)
!526 = !DISubroutineType(types: !527)
!527 = !{null, !497, !157}
!528 = !DISubprogram(name: "ap_int_base", scope: !471, file: !198, line: 218, type: !529, isLocal: false, isDefinition: false, scopeLine: 218, flags: DIFlagPrototyped, isOptimized: false)
!529 = !DISubroutineType(types: !530)
!530 = !{null, !497, !162}
!531 = !DISubprogram(name: "ap_int_base", scope: !471, file: !198, line: 219, type: !532, isLocal: false, isDefinition: false, scopeLine: 219, flags: DIFlagPrototyped, isOptimized: false)
!532 = !DISubroutineType(types: !533)
!533 = !{null, !497, !168}
!534 = !DISubprogram(name: "ap_int_base", scope: !471, file: !198, line: 224, type: !535, isLocal: false, isDefinition: false, scopeLine: 224, flags: DIFlagPrototyped, isOptimized: false)
!535 = !DISubroutineType(types: !536)
!536 = !{null, !497, !182}
!537 = !DISubprogram(name: "ap_int_base", scope: !471, file: !198, line: 230, type: !538, isLocal: false, isDefinition: false, scopeLine: 230, flags: DIFlagPrototyped, isOptimized: false)
!538 = !DISubroutineType(types: !539)
!539 = !{null, !497, !178}
!540 = !DISubprogram(name: "ap_int_base", scope: !471, file: !198, line: 289, type: !541, isLocal: false, isDefinition: false, scopeLine: 289, flags: DIFlagPrototyped, isOptimized: false)
!541 = !DISubroutineType(types: !542)
!542 = !{null, !497, !174}
!543 = !DISubprogram(name: "ap_int_base", scope: !471, file: !198, line: 385, type: !544, isLocal: false, isDefinition: false, scopeLine: 385, flags: DIFlagPrototyped, isOptimized: false)
!544 = !DISubroutineType(types: !545)
!545 = !{null, !497, !108}
!546 = !DISubprogram(name: "ap_int_base", scope: !471, file: !198, line: 391, type: !547, isLocal: false, isDefinition: false, scopeLine: 391, flags: DIFlagPrototyped, isOptimized: false)
!547 = !DISubroutineType(types: !548)
!548 = !{null, !497, !108, !114}
!549 = !DISubprogram(name: "read", linkageName: "_ZNV11ap_int_baseILi17ELb1EE4readEv", scope: !471, file: !198, line: 413, type: !550, isLocal: false, isDefinition: false, scopeLine: 413, flags: DIFlagPrototyped, isOptimized: false)
!550 = !DISubroutineType(types: !551)
!551 = !{!471, !552}
!552 = !DIDerivedType(tag: DW_TAG_pointer_type, baseType: !553, size: 64, flags: DIFlagArtificial | DIFlagObjectPointer)
!553 = !DIDerivedType(tag: DW_TAG_volatile_type, baseType: !471)
!554 = !DISubprogram(name: "write", linkageName: "_ZNV11ap_int_baseILi17ELb1EE5writeERKS0_", scope: !471, file: !198, line: 420, type: !555, isLocal: false, isDefinition: false, scopeLine: 420, flags: DIFlagPrototyped, isOptimized: false)
!555 = !DISubroutineType(types: !556)
!556 = !{null, !552, !557}
!557 = !DIDerivedType(tag: DW_TAG_reference_type, baseType: !493, size: 64)
!558 = !DISubprogram(name: "operator=", linkageName: "_ZNV11ap_int_baseILi17ELb1EEaSERVKS0_", scope: !471, file: !198, line: 432, type: !559, isLocal: false, isDefinition: false, scopeLine: 432, flags: DIFlagPrototyped, isOptimized: false)
!559 = !DISubroutineType(types: !560)
!560 = !{null, !552, !561}
!561 = !DIDerivedType(tag: DW_TAG_reference_type, baseType: !562, size: 64)
!562 = !DIDerivedType(tag: DW_TAG_const_type, baseType: !553)
!563 = !DISubprogram(name: "operator=", linkageName: "_ZNV11ap_int_baseILi17ELb1EEaSERKS0_", scope: !471, file: !198, line: 442, type: !555, isLocal: false, isDefinition: false, scopeLine: 442, flags: DIFlagPrototyped, isOptimized: false)
!564 = !DISubprogram(name: "operator=", linkageName: "_ZN11ap_int_baseILi17ELb1EEaSERVKS0_", scope: !471, file: !198, line: 459, type: !565, isLocal: false, isDefinition: false, scopeLine: 459, flags: DIFlagPrototyped, isOptimized: false)
!565 = !DISubroutineType(types: !566)
!566 = !{!567, !497, !561}
!567 = !DIDerivedType(tag: DW_TAG_reference_type, baseType: !471, size: 64)
!568 = !DISubprogram(name: "operator=", linkageName: "_ZN11ap_int_baseILi17ELb1EEaSERKS0_", scope: !471, file: !198, line: 465, type: !569, isLocal: false, isDefinition: false, scopeLine: 465, flags: DIFlagPrototyped, isOptimized: false)
!569 = !DISubroutineType(types: !570)
!570 = !{!567, !497, !557}
!571 = !DISubprogram(name: "operator=", linkageName: "_ZN11ap_int_baseILi17ELb1EEaSEb", scope: !471, file: !198, line: 479, type: !572, isLocal: false, isDefinition: false, scopeLine: 479, flags: DIFlagPrototyped, isOptimized: false)
!572 = !DISubroutineType(types: !573)
!573 = !{!567, !497, !64}
!574 = !DISubprogram(name: "operator=", linkageName: "_ZN11ap_int_baseILi17ELb1EEaSEc", scope: !471, file: !198, line: 480, type: !575, isLocal: false, isDefinition: false, scopeLine: 480, flags: DIFlagPrototyped, isOptimized: false)
!575 = !DISubroutineType(types: !576)
!576 = !{!567, !497, !110}
!577 = !DISubprogram(name: "operator=", linkageName: "_ZN11ap_int_baseILi17ELb1EEaSEa", scope: !471, file: !198, line: 481, type: !578, isLocal: false, isDefinition: false, scopeLine: 481, flags: DIFlagPrototyped, isOptimized: false)
!578 = !DISubroutineType(types: !579)
!579 = !{!567, !497, !114}
!580 = !DISubprogram(name: "operator=", linkageName: "_ZN11ap_int_baseILi17ELb1EEaSEh", scope: !471, file: !198, line: 482, type: !581, isLocal: false, isDefinition: false, scopeLine: 482, flags: DIFlagPrototyped, isOptimized: false)
!581 = !DISubroutineType(types: !582)
!582 = !{!567, !497, !130}
!583 = !DISubprogram(name: "operator=", linkageName: "_ZN11ap_int_baseILi17ELb1EEaSEs", scope: !471, file: !198, line: 483, type: !584, isLocal: false, isDefinition: false, scopeLine: 483, flags: DIFlagPrototyped, isOptimized: false)
!584 = !DISubroutineType(types: !585)
!585 = !{!567, !497, !135}
!586 = !DISubprogram(name: "operator=", linkageName: "_ZN11ap_int_baseILi17ELb1EEaSEt", scope: !471, file: !198, line: 484, type: !587, isLocal: false, isDefinition: false, scopeLine: 484, flags: DIFlagPrototyped, isOptimized: false)
!587 = !DISubroutineType(types: !588)
!588 = !{!567, !497, !140}
!589 = !DISubprogram(name: "operator=", linkageName: "_ZN11ap_int_baseILi17ELb1EEaSEi", scope: !471, file: !198, line: 485, type: !590, isLocal: false, isDefinition: false, scopeLine: 485, flags: DIFlagPrototyped, isOptimized: false)
!590 = !DISubroutineType(types: !591)
!591 = !{!567, !497, !53}
!592 = !DISubprogram(name: "operator=", linkageName: "_ZN11ap_int_baseILi17ELb1EEaSEj", scope: !471, file: !198, line: 486, type: !593, isLocal: false, isDefinition: false, scopeLine: 486, flags: DIFlagPrototyped, isOptimized: false)
!593 = !DISubroutineType(types: !594)
!594 = !{!567, !497, !148}
!595 = !DISubprogram(name: "operator=", linkageName: "_ZN11ap_int_baseILi17ELb1EEaSEl", scope: !471, file: !198, line: 487, type: !596, isLocal: false, isDefinition: false, scopeLine: 487, flags: DIFlagPrototyped, isOptimized: false)
!596 = !DISubroutineType(types: !597)
!597 = !{!567, !497, !153}
!598 = !DISubprogram(name: "operator=", linkageName: "_ZN11ap_int_baseILi17ELb1EEaSEm", scope: !471, file: !198, line: 488, type: !599, isLocal: false, isDefinition: false, scopeLine: 488, flags: DIFlagPrototyped, isOptimized: false)
!599 = !DISubroutineType(types: !600)
!600 = !{!567, !497, !158}
!601 = !DISubprogram(name: "operator=", linkageName: "_ZN11ap_int_baseILi17ELb1EEaSEx", scope: !471, file: !198, line: 489, type: !602, isLocal: false, isDefinition: false, scopeLine: 489, flags: DIFlagPrototyped, isOptimized: false)
!602 = !DISubroutineType(types: !603)
!603 = !{!567, !497, !163}
!604 = !DISubprogram(name: "operator=", linkageName: "_ZN11ap_int_baseILi17ELb1EEaSEy", scope: !471, file: !198, line: 490, type: !605, isLocal: false, isDefinition: false, scopeLine: 490, flags: DIFlagPrototyped, isOptimized: false)
!605 = !DISubroutineType(types: !606)
!606 = !{!567, !497, !169}
!607 = !DISubprogram(name: "operator long long", linkageName: "_ZNK11ap_int_baseILi17ELb1EEcvxEv", scope: !471, file: !198, line: 541, type: !608, isLocal: false, isDefinition: false, scopeLine: 541, flags: DIFlagPrototyped, isOptimized: false)
!608 = !DISubroutineType(types: !609)
!609 = !{!610, !492}
!610 = !DIDerivedType(tag: DW_TAG_typedef, name: "RetType", scope: !471, file: !198, line: 128, baseType: !337)
!611 = !DISubprogram(name: "to_bool", linkageName: "_ZNK11ap_int_baseILi17ELb1EE7to_boolEv", scope: !471, file: !198, line: 546, type: !612, isLocal: false, isDefinition: false, scopeLine: 546, flags: DIFlagPrototyped, isOptimized: false)
!612 = !DISubroutineType(types: !613)
!613 = !{!64, !492}
!614 = !DISubprogram(name: "to_char", linkageName: "_ZNK11ap_int_baseILi17ELb1EE7to_charEv", scope: !471, file: !198, line: 547, type: !615, isLocal: false, isDefinition: false, scopeLine: 547, flags: DIFlagPrototyped, isOptimized: false)
!615 = !DISubroutineType(types: !616)
!616 = !{!110, !492}
!617 = !DISubprogram(name: "to_schar", linkageName: "_ZNK11ap_int_baseILi17ELb1EE8to_scharEv", scope: !471, file: !198, line: 548, type: !618, isLocal: false, isDefinition: false, scopeLine: 548, flags: DIFlagPrototyped, isOptimized: false)
!618 = !DISubroutineType(types: !619)
!619 = !{!114, !492}
!620 = !DISubprogram(name: "to_uchar", linkageName: "_ZNK11ap_int_baseILi17ELb1EE8to_ucharEv", scope: !471, file: !198, line: 549, type: !621, isLocal: false, isDefinition: false, scopeLine: 549, flags: DIFlagPrototyped, isOptimized: false)
!621 = !DISubroutineType(types: !622)
!622 = !{!130, !492}
!623 = !DISubprogram(name: "to_short", linkageName: "_ZNK11ap_int_baseILi17ELb1EE8to_shortEv", scope: !471, file: !198, line: 550, type: !624, isLocal: false, isDefinition: false, scopeLine: 550, flags: DIFlagPrototyped, isOptimized: false)
!624 = !DISubroutineType(types: !625)
!625 = !{!135, !492}
!626 = !DISubprogram(name: "to_ushort", linkageName: "_ZNK11ap_int_baseILi17ELb1EE9to_ushortEv", scope: !471, file: !198, line: 551, type: !627, isLocal: false, isDefinition: false, scopeLine: 551, flags: DIFlagPrototyped, isOptimized: false)
!627 = !DISubroutineType(types: !628)
!628 = !{!140, !492}
!629 = !DISubprogram(name: "to_int", linkageName: "_ZNK11ap_int_baseILi17ELb1EE6to_intEv", scope: !471, file: !198, line: 552, type: !490, isLocal: false, isDefinition: false, scopeLine: 552, flags: DIFlagPrototyped, isOptimized: false)
!630 = !DISubprogram(name: "to_uint", linkageName: "_ZNK11ap_int_baseILi17ELb1EE7to_uintEv", scope: !471, file: !198, line: 553, type: !631, isLocal: false, isDefinition: false, scopeLine: 553, flags: DIFlagPrototyped, isOptimized: false)
!631 = !DISubroutineType(types: !632)
!632 = !{!148, !492}
!633 = !DISubprogram(name: "to_long", linkageName: "_ZNK11ap_int_baseILi17ELb1EE7to_longEv", scope: !471, file: !198, line: 554, type: !634, isLocal: false, isDefinition: false, scopeLine: 554, flags: DIFlagPrototyped, isOptimized: false)
!634 = !DISubroutineType(types: !635)
!635 = !{!153, !492}
!636 = !DISubprogram(name: "to_ulong", linkageName: "_ZNK11ap_int_baseILi17ELb1EE8to_ulongEv", scope: !471, file: !198, line: 555, type: !637, isLocal: false, isDefinition: false, scopeLine: 555, flags: DIFlagPrototyped, isOptimized: false)
!637 = !DISubroutineType(types: !638)
!638 = !{!158, !492}
!639 = !DISubprogram(name: "to_int64", linkageName: "_ZNK11ap_int_baseILi17ELb1EE8to_int64Ev", scope: !471, file: !198, line: 556, type: !640, isLocal: false, isDefinition: false, scopeLine: 556, flags: DIFlagPrototyped, isOptimized: false)
!640 = !DISubroutineType(types: !641)
!641 = !{!163, !492}
!642 = !DISubprogram(name: "to_uint64", linkageName: "_ZNK11ap_int_baseILi17ELb1EE9to_uint64Ev", scope: !471, file: !198, line: 557, type: !643, isLocal: false, isDefinition: false, scopeLine: 557, flags: DIFlagPrototyped, isOptimized: false)
!643 = !DISubroutineType(types: !644)
!644 = !{!169, !492}
!645 = !DISubprogram(name: "to_half", linkageName: "_ZNK11ap_int_baseILi17ELb1EE7to_halfEv", scope: !471, file: !198, line: 558, type: !646, isLocal: false, isDefinition: false, scopeLine: 558, flags: DIFlagPrototyped, isOptimized: false)
!646 = !DISubroutineType(types: !647)
!647 = !{!182, !492}
!648 = !DISubprogram(name: "to_float", linkageName: "_ZNK11ap_int_baseILi17ELb1EE8to_floatEv", scope: !471, file: !198, line: 559, type: !649, isLocal: false, isDefinition: false, scopeLine: 559, flags: DIFlagPrototyped, isOptimized: false)
!649 = !DISubroutineType(types: !650)
!650 = !{!178, !492}
!651 = !DISubprogram(name: "to_double", linkageName: "_ZNK11ap_int_baseILi17ELb1EE9to_doubleEv", scope: !471, file: !198, line: 560, type: !652, isLocal: false, isDefinition: false, scopeLine: 560, flags: DIFlagPrototyped, isOptimized: false)
!652 = !DISubroutineType(types: !653)
!653 = !{!174, !492}
!654 = !DISubprogram(name: "length", linkageName: "_ZNVK11ap_int_baseILi17ELb1EE6lengthEv", scope: !471, file: !198, line: 584, type: !655, isLocal: false, isDefinition: false, scopeLine: 584, flags: DIFlagPrototyped, isOptimized: false)
!655 = !DISubroutineType(types: !656)
!656 = !{!53, !657}
!657 = !DIDerivedType(tag: DW_TAG_pointer_type, baseType: !562, size: 64, flags: DIFlagArtificial | DIFlagObjectPointer)
!658 = !DISubprogram(name: "length", linkageName: "_ZNK11ap_int_baseILi17ELb1EE6lengthEv", scope: !471, file: !198, line: 585, type: !490, isLocal: false, isDefinition: false, scopeLine: 585, flags: DIFlagPrototyped, isOptimized: false)
!659 = !DISubprogram(name: "iszero", linkageName: "_ZNK11ap_int_baseILi17ELb1EE6iszeroEv", scope: !471, file: !198, line: 588, type: !612, isLocal: false, isDefinition: false, scopeLine: 588, flags: DIFlagPrototyped, isOptimized: false)
!660 = !DISubprogram(name: "is_zero", linkageName: "_ZNK11ap_int_baseILi17ELb1EE7is_zeroEv", scope: !471, file: !198, line: 591, type: !612, isLocal: false, isDefinition: false, scopeLine: 591, flags: DIFlagPrototyped, isOptimized: false)
!661 = !DISubprogram(name: "sign", linkageName: "_ZNK11ap_int_baseILi17ELb1EE4signEv", scope: !471, file: !198, line: 594, type: !612, isLocal: false, isDefinition: false, scopeLine: 594, flags: DIFlagPrototyped, isOptimized: false)
!662 = !DISubprogram(name: "clear", linkageName: "_ZN11ap_int_baseILi17ELb1EE5clearEi", scope: !471, file: !198, line: 603, type: !663, isLocal: false, isDefinition: false, scopeLine: 603, flags: DIFlagPrototyped, isOptimized: false)
!663 = !DISubroutineType(types: !664)
!664 = !{null, !497, !53}
!665 = !DISubprogram(name: "invert", linkageName: "_ZN11ap_int_baseILi17ELb1EE6invertEi", scope: !471, file: !198, line: 609, type: !663, isLocal: false, isDefinition: false, scopeLine: 609, flags: DIFlagPrototyped, isOptimized: false)
!666 = !DISubprogram(name: "test", linkageName: "_ZNK11ap_int_baseILi17ELb1EE4testEi", scope: !471, file: !198, line: 618, type: !667, isLocal: false, isDefinition: false, scopeLine: 618, flags: DIFlagPrototyped, isOptimized: false)
!667 = !DISubroutineType(types: !668)
!668 = !{!64, !492, !53}
!669 = !DISubprogram(name: "get", linkageName: "_ZN11ap_int_baseILi17ELb1EE3getEv", scope: !471, file: !198, line: 624, type: !670, isLocal: false, isDefinition: false, scopeLine: 624, flags: DIFlagPrototyped, isOptimized: false)
!670 = !DISubroutineType(types: !671)
!671 = !{!567, !497}
!672 = !DISubprogram(name: "set", linkageName: "_ZN11ap_int_baseILi17ELb1EE3setEi", scope: !471, file: !198, line: 627, type: !663, isLocal: false, isDefinition: false, scopeLine: 627, flags: DIFlagPrototyped, isOptimized: false)
!673 = !DISubprogram(name: "set", linkageName: "_ZN11ap_int_baseILi17ELb1EE3setEib", scope: !471, file: !198, line: 633, type: !674, isLocal: false, isDefinition: false, scopeLine: 633, flags: DIFlagPrototyped, isOptimized: false)
!674 = !DISubroutineType(types: !675)
!675 = !{null, !497, !53, !64}
!676 = !DISubprogram(name: "lrotate", linkageName: "_ZN11ap_int_baseILi17ELb1EE7lrotateEi", scope: !471, file: !198, line: 640, type: !590, isLocal: false, isDefinition: false, scopeLine: 640, flags: DIFlagPrototyped, isOptimized: false)
!677 = !DISubprogram(name: "rrotate", linkageName: "_ZN11ap_int_baseILi17ELb1EE7rrotateEi", scope: !471, file: !198, line: 655, type: !590, isLocal: false, isDefinition: false, scopeLine: 655, flags: DIFlagPrototyped, isOptimized: false)
!678 = !DISubprogram(name: "reverse", linkageName: "_ZN11ap_int_baseILi17ELb1EE7reverseEv", scope: !471, file: !198, line: 670, type: !670, isLocal: false, isDefinition: false, scopeLine: 670, flags: DIFlagPrototyped, isOptimized: false)
!679 = !DISubprogram(name: "set_bit", linkageName: "_ZN11ap_int_baseILi17ELb1EE7set_bitEib", scope: !471, file: !198, line: 676, type: !674, isLocal: false, isDefinition: false, scopeLine: 676, flags: DIFlagPrototyped, isOptimized: false)
!680 = !DISubprogram(name: "get_bit", linkageName: "_ZNK11ap_int_baseILi17ELb1EE7get_bitEi", scope: !471, file: !198, line: 681, type: !667, isLocal: false, isDefinition: false, scopeLine: 681, flags: DIFlagPrototyped, isOptimized: false)
!681 = !DISubprogram(name: "b_not", linkageName: "_ZN11ap_int_baseILi17ELb1EE5b_notEv", scope: !471, file: !198, line: 686, type: !495, isLocal: false, isDefinition: false, scopeLine: 686, flags: DIFlagPrototyped, isOptimized: false)
!682 = !DISubprogram(name: "checkOverflowCsim", linkageName: "_ZNK11ap_int_baseILi17ELb1EE17checkOverflowCsimEibb", scope: !471, file: !198, line: 760, type: !683, isLocal: false, isDefinition: false, scopeLine: 760, flags: DIFlagPrototyped, isOptimized: false)
!683 = !DISubroutineType(types: !684)
!684 = !{!64, !492, !53, !64, !64}
!685 = !DISubprogram(name: "operator++", linkageName: "_ZN11ap_int_baseILi17ELb1EEppEv", scope: !471, file: !198, line: 865, type: !670, isLocal: false, isDefinition: false, scopeLine: 865, flags: DIFlagPrototyped, isOptimized: false)
!686 = !DISubprogram(name: "operator--", linkageName: "_ZN11ap_int_baseILi17ELb1EEmmEv", scope: !471, file: !198, line: 869, type: !670, isLocal: false, isDefinition: false, scopeLine: 869, flags: DIFlagPrototyped, isOptimized: false)
!687 = !DISubprogram(name: "operator++", linkageName: "_ZN11ap_int_baseILi17ELb1EEppEi", scope: !471, file: !198, line: 877, type: !688, isLocal: false, isDefinition: false, scopeLine: 877, flags: DIFlagPrototyped, isOptimized: false)
!688 = !DISubroutineType(types: !689)
!689 = !{!690, !497, !53}
!690 = !DIDerivedType(tag: DW_TAG_const_type, baseType: !691)
!691 = !DIDerivedType(tag: DW_TAG_typedef, name: "arg1", scope: !692, file: !198, line: 167, baseType: !464)
!692 = distinct !DICompositeType(tag: DW_TAG_structure_type, name: "RType<17, true>", scope: !471, file: !198, line: 134, size: 8, flags: DIFlagTypePassByValue, elements: !4, templateParams: !466, identifier: "_ZTSN11ap_int_baseILi17ELb1EE5RTypeILi17ELb1EEE")
!693 = !DISubprogram(name: "operator--", linkageName: "_ZN11ap_int_baseILi17ELb1EEmmEi", scope: !471, file: !198, line: 882, type: !688, isLocal: false, isDefinition: false, scopeLine: 882, flags: DIFlagPrototyped, isOptimized: false)
!694 = !DISubprogram(name: "operator+", linkageName: "_ZNK11ap_int_baseILi17ELb1EEpsEv", scope: !471, file: !198, line: 891, type: !695, isLocal: false, isDefinition: false, scopeLine: 891, flags: DIFlagPrototyped, isOptimized: false)
!695 = !DISubroutineType(types: !696)
!696 = !{!691, !492}
!697 = !DISubprogram(name: "operator-", linkageName: "_ZNK11ap_int_baseILi17ELb1EEngEv", scope: !471, file: !198, line: 894, type: !698, isLocal: false, isDefinition: false, scopeLine: 894, flags: DIFlagPrototyped, isOptimized: false)
!698 = !DISubroutineType(types: !699)
!699 = !{!700, !492}
!700 = !DIDerivedType(tag: DW_TAG_typedef, name: "minus", scope: !701, file: !198, line: 163, baseType: !702)
!701 = distinct !DICompositeType(tag: DW_TAG_structure_type, name: "RType<1, false>", scope: !471, file: !198, line: 134, size: 8, flags: DIFlagTypePassByValue, elements: !4, templateParams: !461, identifier: "_ZTSN11ap_int_baseILi17ELb1EE5RTypeILi1ELb0EEE")
!702 = !DIDerivedType(tag: DW_TAG_typedef, name: "type", scope: !703, file: !198, line: 103, baseType: !706)
!703 = distinct !DICompositeType(tag: DW_TAG_structure_type, name: "_ap_int_factory<18, true>", file: !198, line: 103, size: 8, flags: DIFlagTypePassByValue, elements: !4, templateParams: !704, identifier: "_ZTS15_ap_int_factoryILi18ELb1EE")
!704 = !{!705, !425}
!705 = !DITemplateValueParameter(name: "_AP_W2", type: !53, value: i32 18)
!706 = distinct !DICompositeType(tag: DW_TAG_structure_type, name: "ap_int<18>", file: !429, line: 18, size: 32, flags: DIFlagTypePassByValue, elements: !707, templateParams: !1297, identifier: "_ZTS6ap_intILi18EE")
!707 = !{!708, !1281, !1285, !1288, !1291}
!708 = !DIDerivedType(tag: DW_TAG_inheritance, scope: !706, baseType: !709)
!709 = distinct !DICompositeType(tag: DW_TAG_structure_type, name: "ap_int_base<18, true>", file: !710, line: 108, size: 32, flags: DIFlagTypePassByValue, elements: !711, templateParams: !1279, identifier: "_ZTS11ap_int_baseILi18ELb1EE")
!710 = !DIFile(filename: "/wrk/ci/prod/2022.2/hls_product/continuous/608/2022.2/src/shared/hls/clib/include/header_files/ap_int_base.h", directory: "/wrk/ci/prod/2022.2/hls_product/continuous/608/2022.2/src/shared/hls/clib/hlsmath")
!711 = !{!712, !726, !727, !728, !733, !737, !740, !743, !746, !749, !752, !755, !758, !761, !764, !767, !773, !778, !781, !784, !787, !790, !793, !798, !802, !807, !808, !812, !815, !818, !821, !824, !827, !830, !833, !836, !839, !842, !845, !848, !851, !856, !859, !862, !865, !868, !871, !874, !875, !878, !881, !884, !887, !890, !893, !896, !899, !903, !904, !905, !906, !907, !910, !911, !914, !917, !918, !921, !922, !923, !924, !925, !926, !927, !930, !931, !932, !939, !940, !943, !1245, !1246, !1247, !1251, !1254, !1257, !1260, !1261, !1262, !1266, !1267, !1268, !1269, !1270, !1271, !1272, !1273, !1274, !1275, !1276}
!712 = !DIDerivedType(tag: DW_TAG_inheritance, scope: !709, baseType: !713)
!713 = distinct !DICompositeType(tag: DW_TAG_structure_type, name: "ssdm_int<18, true>", file: !443, line: 511, size: 32, flags: DIFlagTypePassByValue, elements: !714, templateParams: !724, identifier: "_ZTS8ssdm_intILi18ELb1EE")
!714 = !{!715, !717, !721}
!715 = !DIDerivedType(tag: DW_TAG_member, name: "V", scope: !713, file: !443, line: 513, baseType: !716, size: 18, align: 32)
!716 = !DIBasicType(name: "int18", size: 18, encoding: DW_ATE_signed)
!717 = !DISubprogram(name: "ssdm_int", scope: !713, file: !443, line: 514, type: !718, isLocal: false, isDefinition: false, scopeLine: 514, flags: DIFlagPrototyped, isOptimized: false)
!718 = !DISubroutineType(types: !719)
!719 = !{null, !720}
!720 = !DIDerivedType(tag: DW_TAG_pointer_type, baseType: !713, size: 64, flags: DIFlagArtificial | DIFlagObjectPointer)
!721 = !DISubprogram(name: "ssdm_int", scope: !713, file: !443, line: 515, type: !722, isLocal: false, isDefinition: false, scopeLine: 515, flags: DIFlagPrototyped, isOptimized: false)
!722 = !DISubroutineType(types: !723)
!723 = !{null, !720, !716}
!724 = !{!725, !63}
!725 = !DITemplateValueParameter(name: "_AP_N", type: !53, value: i32 18)
!726 = !DIDerivedType(tag: DW_TAG_member, name: "width", scope: !709, file: !710, line: 130, baseType: !66, flags: DIFlagStaticMember, extraData: i32 18)
!727 = !DIDerivedType(tag: DW_TAG_member, name: "sign_flag", scope: !709, file: !710, line: 131, baseType: !118, flags: DIFlagStaticMember, extraData: i1 true)
!728 = !DISubprogram(name: "countLeadingOnes", linkageName: "_ZNK11ap_int_baseILi18ELb1EE16countLeadingOnesEv", scope: !709, file: !710, line: 110, type: !729, isLocal: false, isDefinition: false, scopeLine: 110, flags: DIFlagPrivate | DIFlagPrototyped, isOptimized: false)
!729 = !DISubroutineType(types: !730)
!730 = !{!53, !731}
!731 = !DIDerivedType(tag: DW_TAG_pointer_type, baseType: !732, size: 64, flags: DIFlagArtificial | DIFlagObjectPointer)
!732 = !DIDerivedType(tag: DW_TAG_const_type, baseType: !709)
!733 = !DISubprogram(name: "ap_int_base", scope: !709, file: !710, line: 175, type: !734, isLocal: false, isDefinition: false, scopeLine: 175, flags: DIFlagPrototyped, isOptimized: false)
!734 = !DISubroutineType(types: !735)
!735 = !{null, !736}
!736 = !DIDerivedType(tag: DW_TAG_pointer_type, baseType: !709, size: 64, flags: DIFlagArtificial | DIFlagObjectPointer)
!737 = !DISubprogram(name: "ap_int_base", scope: !709, file: !710, line: 208, type: !738, isLocal: false, isDefinition: false, scopeLine: 208, flags: DIFlagPrototyped, isOptimized: false)
!738 = !DISubroutineType(types: !739)
!739 = !{null, !736, !118}
!740 = !DISubprogram(name: "ap_int_base", scope: !709, file: !710, line: 209, type: !741, isLocal: false, isDefinition: false, scopeLine: 209, flags: DIFlagPrototyped, isOptimized: false)
!741 = !DISubroutineType(types: !742)
!742 = !{null, !736, !109}
!743 = !DISubprogram(name: "ap_int_base", scope: !709, file: !710, line: 210, type: !744, isLocal: false, isDefinition: false, scopeLine: 210, flags: DIFlagPrototyped, isOptimized: false)
!744 = !DISubroutineType(types: !745)
!745 = !{null, !736, !125}
!746 = !DISubprogram(name: "ap_int_base", scope: !709, file: !710, line: 211, type: !747, isLocal: false, isDefinition: false, scopeLine: 211, flags: DIFlagPrototyped, isOptimized: false)
!747 = !DISubroutineType(types: !748)
!748 = !{null, !736, !129}
!749 = !DISubprogram(name: "ap_int_base", scope: !709, file: !710, line: 212, type: !750, isLocal: false, isDefinition: false, scopeLine: 212, flags: DIFlagPrototyped, isOptimized: false)
!750 = !DISubroutineType(types: !751)
!751 = !{null, !736, !134}
!752 = !DISubprogram(name: "ap_int_base", scope: !709, file: !710, line: 213, type: !753, isLocal: false, isDefinition: false, scopeLine: 213, flags: DIFlagPrototyped, isOptimized: false)
!753 = !DISubroutineType(types: !754)
!754 = !{null, !736, !139}
!755 = !DISubprogram(name: "ap_int_base", scope: !709, file: !710, line: 214, type: !756, isLocal: false, isDefinition: false, scopeLine: 214, flags: DIFlagPrototyped, isOptimized: false)
!756 = !DISubroutineType(types: !757)
!757 = !{null, !736, !66}
!758 = !DISubprogram(name: "ap_int_base", scope: !709, file: !710, line: 215, type: !759, isLocal: false, isDefinition: false, scopeLine: 215, flags: DIFlagPrototyped, isOptimized: false)
!759 = !DISubroutineType(types: !760)
!760 = !{null, !736, !147}
!761 = !DISubprogram(name: "ap_int_base", scope: !709, file: !710, line: 216, type: !762, isLocal: false, isDefinition: false, scopeLine: 216, flags: DIFlagPrototyped, isOptimized: false)
!762 = !DISubroutineType(types: !763)
!763 = !{null, !736, !152}
!764 = !DISubprogram(name: "ap_int_base", scope: !709, file: !710, line: 217, type: !765, isLocal: false, isDefinition: false, scopeLine: 217, flags: DIFlagPrototyped, isOptimized: false)
!765 = !DISubroutineType(types: !766)
!766 = !{null, !736, !157}
!767 = !DISubprogram(name: "ap_int_base", scope: !709, file: !710, line: 218, type: !768, isLocal: false, isDefinition: false, scopeLine: 218, flags: DIFlagPrototyped, isOptimized: false)
!768 = !DISubroutineType(types: !769)
!769 = !{null, !736, !770}
!770 = !DIDerivedType(tag: DW_TAG_const_type, baseType: !771)
!771 = !DIDerivedType(tag: DW_TAG_typedef, name: "ap_slong", file: !772, line: 187, baseType: !164)
!772 = !DIFile(filename: "/wrk/ci/prod/2022.2/hls_product/continuous/608/2022.2/src/shared/hls/clib/include/header_files/ap_decl.h", directory: "/wrk/ci/prod/2022.2/hls_product/continuous/608/2022.2/src/shared/hls/clib/hlsmath")
!773 = !DISubprogram(name: "ap_int_base", scope: !709, file: !710, line: 219, type: !774, isLocal: false, isDefinition: false, scopeLine: 219, flags: DIFlagPrototyped, isOptimized: false)
!774 = !DISubroutineType(types: !775)
!775 = !{null, !736, !776}
!776 = !DIDerivedType(tag: DW_TAG_const_type, baseType: !777)
!777 = !DIDerivedType(tag: DW_TAG_typedef, name: "ap_ulong", file: !772, line: 188, baseType: !170)
!778 = !DISubprogram(name: "ap_int_base", scope: !709, file: !710, line: 224, type: !779, isLocal: false, isDefinition: false, scopeLine: 224, flags: DIFlagPrototyped, isOptimized: false)
!779 = !DISubroutineType(types: !780)
!780 = !{null, !736, !442}
!781 = !DISubprogram(name: "ap_int_base", scope: !709, file: !710, line: 230, type: !782, isLocal: false, isDefinition: false, scopeLine: 230, flags: DIFlagPrototyped, isOptimized: false)
!782 = !DISubroutineType(types: !783)
!783 = !{null, !736, !178}
!784 = !DISubprogram(name: "ap_int_base", scope: !709, file: !710, line: 289, type: !785, isLocal: false, isDefinition: false, scopeLine: 289, flags: DIFlagPrototyped, isOptimized: false)
!785 = !DISubroutineType(types: !786)
!786 = !{null, !736, !174}
!787 = !DISubprogram(name: "ap_int_base", scope: !709, file: !710, line: 385, type: !788, isLocal: false, isDefinition: false, scopeLine: 385, flags: DIFlagPrototyped, isOptimized: false)
!788 = !DISubroutineType(types: !789)
!789 = !{null, !736, !108}
!790 = !DISubprogram(name: "ap_int_base", scope: !709, file: !710, line: 391, type: !791, isLocal: false, isDefinition: false, scopeLine: 391, flags: DIFlagPrototyped, isOptimized: false)
!791 = !DISubroutineType(types: !792)
!792 = !{null, !736, !108, !114}
!793 = !DISubprogram(name: "read", linkageName: "_ZNV11ap_int_baseILi18ELb1EE4readEv", scope: !709, file: !710, line: 413, type: !794, isLocal: false, isDefinition: false, scopeLine: 413, flags: DIFlagPrototyped, isOptimized: false)
!794 = !DISubroutineType(types: !795)
!795 = !{!709, !796}
!796 = !DIDerivedType(tag: DW_TAG_pointer_type, baseType: !797, size: 64, flags: DIFlagArtificial | DIFlagObjectPointer)
!797 = !DIDerivedType(tag: DW_TAG_volatile_type, baseType: !709)
!798 = !DISubprogram(name: "write", linkageName: "_ZNV11ap_int_baseILi18ELb1EE5writeERKS0_", scope: !709, file: !710, line: 420, type: !799, isLocal: false, isDefinition: false, scopeLine: 420, flags: DIFlagPrototyped, isOptimized: false)
!799 = !DISubroutineType(types: !800)
!800 = !{null, !796, !801}
!801 = !DIDerivedType(tag: DW_TAG_reference_type, baseType: !732, size: 64)
!802 = !DISubprogram(name: "operator=", linkageName: "_ZNV11ap_int_baseILi18ELb1EEaSERVKS0_", scope: !709, file: !710, line: 432, type: !803, isLocal: false, isDefinition: false, scopeLine: 432, flags: DIFlagPrototyped, isOptimized: false)
!803 = !DISubroutineType(types: !804)
!804 = !{null, !796, !805}
!805 = !DIDerivedType(tag: DW_TAG_reference_type, baseType: !806, size: 64)
!806 = !DIDerivedType(tag: DW_TAG_const_type, baseType: !797)
!807 = !DISubprogram(name: "operator=", linkageName: "_ZNV11ap_int_baseILi18ELb1EEaSERKS0_", scope: !709, file: !710, line: 442, type: !799, isLocal: false, isDefinition: false, scopeLine: 442, flags: DIFlagPrototyped, isOptimized: false)
!808 = !DISubprogram(name: "operator=", linkageName: "_ZN11ap_int_baseILi18ELb1EEaSERVKS0_", scope: !709, file: !710, line: 459, type: !809, isLocal: false, isDefinition: false, scopeLine: 459, flags: DIFlagPrototyped, isOptimized: false)
!809 = !DISubroutineType(types: !810)
!810 = !{!811, !736, !805}
!811 = !DIDerivedType(tag: DW_TAG_reference_type, baseType: !709, size: 64)
!812 = !DISubprogram(name: "operator=", linkageName: "_ZN11ap_int_baseILi18ELb1EEaSERKS0_", scope: !709, file: !710, line: 465, type: !813, isLocal: false, isDefinition: false, scopeLine: 465, flags: DIFlagPrototyped, isOptimized: false)
!813 = !DISubroutineType(types: !814)
!814 = !{!811, !736, !801}
!815 = !DISubprogram(name: "operator=", linkageName: "_ZN11ap_int_baseILi18ELb1EEaSEb", scope: !709, file: !710, line: 479, type: !816, isLocal: false, isDefinition: false, scopeLine: 479, flags: DIFlagPrototyped, isOptimized: false)
!816 = !DISubroutineType(types: !817)
!817 = !{!811, !736, !64}
!818 = !DISubprogram(name: "operator=", linkageName: "_ZN11ap_int_baseILi18ELb1EEaSEc", scope: !709, file: !710, line: 480, type: !819, isLocal: false, isDefinition: false, scopeLine: 480, flags: DIFlagPrototyped, isOptimized: false)
!819 = !DISubroutineType(types: !820)
!820 = !{!811, !736, !110}
!821 = !DISubprogram(name: "operator=", linkageName: "_ZN11ap_int_baseILi18ELb1EEaSEa", scope: !709, file: !710, line: 481, type: !822, isLocal: false, isDefinition: false, scopeLine: 481, flags: DIFlagPrototyped, isOptimized: false)
!822 = !DISubroutineType(types: !823)
!823 = !{!811, !736, !114}
!824 = !DISubprogram(name: "operator=", linkageName: "_ZN11ap_int_baseILi18ELb1EEaSEh", scope: !709, file: !710, line: 482, type: !825, isLocal: false, isDefinition: false, scopeLine: 482, flags: DIFlagPrototyped, isOptimized: false)
!825 = !DISubroutineType(types: !826)
!826 = !{!811, !736, !130}
!827 = !DISubprogram(name: "operator=", linkageName: "_ZN11ap_int_baseILi18ELb1EEaSEs", scope: !709, file: !710, line: 483, type: !828, isLocal: false, isDefinition: false, scopeLine: 483, flags: DIFlagPrototyped, isOptimized: false)
!828 = !DISubroutineType(types: !829)
!829 = !{!811, !736, !135}
!830 = !DISubprogram(name: "operator=", linkageName: "_ZN11ap_int_baseILi18ELb1EEaSEt", scope: !709, file: !710, line: 484, type: !831, isLocal: false, isDefinition: false, scopeLine: 484, flags: DIFlagPrototyped, isOptimized: false)
!831 = !DISubroutineType(types: !832)
!832 = !{!811, !736, !140}
!833 = !DISubprogram(name: "operator=", linkageName: "_ZN11ap_int_baseILi18ELb1EEaSEi", scope: !709, file: !710, line: 485, type: !834, isLocal: false, isDefinition: false, scopeLine: 485, flags: DIFlagPrototyped, isOptimized: false)
!834 = !DISubroutineType(types: !835)
!835 = !{!811, !736, !53}
!836 = !DISubprogram(name: "operator=", linkageName: "_ZN11ap_int_baseILi18ELb1EEaSEj", scope: !709, file: !710, line: 486, type: !837, isLocal: false, isDefinition: false, scopeLine: 486, flags: DIFlagPrototyped, isOptimized: false)
!837 = !DISubroutineType(types: !838)
!838 = !{!811, !736, !148}
!839 = !DISubprogram(name: "operator=", linkageName: "_ZN11ap_int_baseILi18ELb1EEaSEl", scope: !709, file: !710, line: 487, type: !840, isLocal: false, isDefinition: false, scopeLine: 487, flags: DIFlagPrototyped, isOptimized: false)
!840 = !DISubroutineType(types: !841)
!841 = !{!811, !736, !153}
!842 = !DISubprogram(name: "operator=", linkageName: "_ZN11ap_int_baseILi18ELb1EEaSEm", scope: !709, file: !710, line: 488, type: !843, isLocal: false, isDefinition: false, scopeLine: 488, flags: DIFlagPrototyped, isOptimized: false)
!843 = !DISubroutineType(types: !844)
!844 = !{!811, !736, !158}
!845 = !DISubprogram(name: "operator=", linkageName: "_ZN11ap_int_baseILi18ELb1EEaSEx", scope: !709, file: !710, line: 489, type: !846, isLocal: false, isDefinition: false, scopeLine: 489, flags: DIFlagPrototyped, isOptimized: false)
!846 = !DISubroutineType(types: !847)
!847 = !{!811, !736, !771}
!848 = !DISubprogram(name: "operator=", linkageName: "_ZN11ap_int_baseILi18ELb1EEaSEy", scope: !709, file: !710, line: 490, type: !849, isLocal: false, isDefinition: false, scopeLine: 490, flags: DIFlagPrototyped, isOptimized: false)
!849 = !DISubroutineType(types: !850)
!850 = !{!811, !736, !777}
!851 = !DISubprogram(name: "operator long long", linkageName: "_ZNK11ap_int_baseILi18ELb1EEcvxEv", scope: !709, file: !710, line: 541, type: !852, isLocal: false, isDefinition: false, scopeLine: 541, flags: DIFlagPrototyped, isOptimized: false)
!852 = !DISubroutineType(types: !853)
!853 = !{!854, !731}
!854 = !DIDerivedType(tag: DW_TAG_typedef, name: "RetType", scope: !709, file: !710, line: 128, baseType: !855)
!855 = !DIDerivedType(tag: DW_TAG_typedef, name: "Type", scope: !338, file: !710, line: 46, baseType: !771)
!856 = !DISubprogram(name: "to_bool", linkageName: "_ZNK11ap_int_baseILi18ELb1EE7to_boolEv", scope: !709, file: !710, line: 546, type: !857, isLocal: false, isDefinition: false, scopeLine: 546, flags: DIFlagPrototyped, isOptimized: false)
!857 = !DISubroutineType(types: !858)
!858 = !{!64, !731}
!859 = !DISubprogram(name: "to_char", linkageName: "_ZNK11ap_int_baseILi18ELb1EE7to_charEv", scope: !709, file: !710, line: 547, type: !860, isLocal: false, isDefinition: false, scopeLine: 547, flags: DIFlagPrototyped, isOptimized: false)
!860 = !DISubroutineType(types: !861)
!861 = !{!110, !731}
!862 = !DISubprogram(name: "to_schar", linkageName: "_ZNK11ap_int_baseILi18ELb1EE8to_scharEv", scope: !709, file: !710, line: 548, type: !863, isLocal: false, isDefinition: false, scopeLine: 548, flags: DIFlagPrototyped, isOptimized: false)
!863 = !DISubroutineType(types: !864)
!864 = !{!114, !731}
!865 = !DISubprogram(name: "to_uchar", linkageName: "_ZNK11ap_int_baseILi18ELb1EE8to_ucharEv", scope: !709, file: !710, line: 549, type: !866, isLocal: false, isDefinition: false, scopeLine: 549, flags: DIFlagPrototyped, isOptimized: false)
!866 = !DISubroutineType(types: !867)
!867 = !{!130, !731}
!868 = !DISubprogram(name: "to_short", linkageName: "_ZNK11ap_int_baseILi18ELb1EE8to_shortEv", scope: !709, file: !710, line: 550, type: !869, isLocal: false, isDefinition: false, scopeLine: 550, flags: DIFlagPrototyped, isOptimized: false)
!869 = !DISubroutineType(types: !870)
!870 = !{!135, !731}
!871 = !DISubprogram(name: "to_ushort", linkageName: "_ZNK11ap_int_baseILi18ELb1EE9to_ushortEv", scope: !709, file: !710, line: 551, type: !872, isLocal: false, isDefinition: false, scopeLine: 551, flags: DIFlagPrototyped, isOptimized: false)
!872 = !DISubroutineType(types: !873)
!873 = !{!140, !731}
!874 = !DISubprogram(name: "to_int", linkageName: "_ZNK11ap_int_baseILi18ELb1EE6to_intEv", scope: !709, file: !710, line: 552, type: !729, isLocal: false, isDefinition: false, scopeLine: 552, flags: DIFlagPrototyped, isOptimized: false)
!875 = !DISubprogram(name: "to_uint", linkageName: "_ZNK11ap_int_baseILi18ELb1EE7to_uintEv", scope: !709, file: !710, line: 553, type: !876, isLocal: false, isDefinition: false, scopeLine: 553, flags: DIFlagPrototyped, isOptimized: false)
!876 = !DISubroutineType(types: !877)
!877 = !{!148, !731}
!878 = !DISubprogram(name: "to_long", linkageName: "_ZNK11ap_int_baseILi18ELb1EE7to_longEv", scope: !709, file: !710, line: 554, type: !879, isLocal: false, isDefinition: false, scopeLine: 554, flags: DIFlagPrototyped, isOptimized: false)
!879 = !DISubroutineType(types: !880)
!880 = !{!153, !731}
!881 = !DISubprogram(name: "to_ulong", linkageName: "_ZNK11ap_int_baseILi18ELb1EE8to_ulongEv", scope: !709, file: !710, line: 555, type: !882, isLocal: false, isDefinition: false, scopeLine: 555, flags: DIFlagPrototyped, isOptimized: false)
!882 = !DISubroutineType(types: !883)
!883 = !{!158, !731}
!884 = !DISubprogram(name: "to_int64", linkageName: "_ZNK11ap_int_baseILi18ELb1EE8to_int64Ev", scope: !709, file: !710, line: 556, type: !885, isLocal: false, isDefinition: false, scopeLine: 556, flags: DIFlagPrototyped, isOptimized: false)
!885 = !DISubroutineType(types: !886)
!886 = !{!771, !731}
!887 = !DISubprogram(name: "to_uint64", linkageName: "_ZNK11ap_int_baseILi18ELb1EE9to_uint64Ev", scope: !709, file: !710, line: 557, type: !888, isLocal: false, isDefinition: false, scopeLine: 557, flags: DIFlagPrototyped, isOptimized: false)
!888 = !DISubroutineType(types: !889)
!889 = !{!777, !731}
!890 = !DISubprogram(name: "to_half", linkageName: "_ZNK11ap_int_baseILi18ELb1EE7to_halfEv", scope: !709, file: !710, line: 558, type: !891, isLocal: false, isDefinition: false, scopeLine: 558, flags: DIFlagPrototyped, isOptimized: false)
!891 = !DISubroutineType(types: !892)
!892 = !{!442, !731}
!893 = !DISubprogram(name: "to_float", linkageName: "_ZNK11ap_int_baseILi18ELb1EE8to_floatEv", scope: !709, file: !710, line: 559, type: !894, isLocal: false, isDefinition: false, scopeLine: 559, flags: DIFlagPrototyped, isOptimized: false)
!894 = !DISubroutineType(types: !895)
!895 = !{!178, !731}
!896 = !DISubprogram(name: "to_double", linkageName: "_ZNK11ap_int_baseILi18ELb1EE9to_doubleEv", scope: !709, file: !710, line: 560, type: !897, isLocal: false, isDefinition: false, scopeLine: 560, flags: DIFlagPrototyped, isOptimized: false)
!897 = !DISubroutineType(types: !898)
!898 = !{!174, !731}
!899 = !DISubprogram(name: "length", linkageName: "_ZNVK11ap_int_baseILi18ELb1EE6lengthEv", scope: !709, file: !710, line: 584, type: !900, isLocal: false, isDefinition: false, scopeLine: 584, flags: DIFlagPrototyped, isOptimized: false)
!900 = !DISubroutineType(types: !901)
!901 = !{!53, !902}
!902 = !DIDerivedType(tag: DW_TAG_pointer_type, baseType: !806, size: 64, flags: DIFlagArtificial | DIFlagObjectPointer)
!903 = !DISubprogram(name: "length", linkageName: "_ZNK11ap_int_baseILi18ELb1EE6lengthEv", scope: !709, file: !710, line: 585, type: !729, isLocal: false, isDefinition: false, scopeLine: 585, flags: DIFlagPrototyped, isOptimized: false)
!904 = !DISubprogram(name: "iszero", linkageName: "_ZNK11ap_int_baseILi18ELb1EE6iszeroEv", scope: !709, file: !710, line: 588, type: !857, isLocal: false, isDefinition: false, scopeLine: 588, flags: DIFlagPrototyped, isOptimized: false)
!905 = !DISubprogram(name: "is_zero", linkageName: "_ZNK11ap_int_baseILi18ELb1EE7is_zeroEv", scope: !709, file: !710, line: 591, type: !857, isLocal: false, isDefinition: false, scopeLine: 591, flags: DIFlagPrototyped, isOptimized: false)
!906 = !DISubprogram(name: "sign", linkageName: "_ZNK11ap_int_baseILi18ELb1EE4signEv", scope: !709, file: !710, line: 594, type: !857, isLocal: false, isDefinition: false, scopeLine: 594, flags: DIFlagPrototyped, isOptimized: false)
!907 = !DISubprogram(name: "clear", linkageName: "_ZN11ap_int_baseILi18ELb1EE5clearEi", scope: !709, file: !710, line: 603, type: !908, isLocal: false, isDefinition: false, scopeLine: 603, flags: DIFlagPrototyped, isOptimized: false)
!908 = !DISubroutineType(types: !909)
!909 = !{null, !736, !53}
!910 = !DISubprogram(name: "invert", linkageName: "_ZN11ap_int_baseILi18ELb1EE6invertEi", scope: !709, file: !710, line: 609, type: !908, isLocal: false, isDefinition: false, scopeLine: 609, flags: DIFlagPrototyped, isOptimized: false)
!911 = !DISubprogram(name: "test", linkageName: "_ZNK11ap_int_baseILi18ELb1EE4testEi", scope: !709, file: !710, line: 618, type: !912, isLocal: false, isDefinition: false, scopeLine: 618, flags: DIFlagPrototyped, isOptimized: false)
!912 = !DISubroutineType(types: !913)
!913 = !{!64, !731, !53}
!914 = !DISubprogram(name: "get", linkageName: "_ZN11ap_int_baseILi18ELb1EE3getEv", scope: !709, file: !710, line: 624, type: !915, isLocal: false, isDefinition: false, scopeLine: 624, flags: DIFlagPrototyped, isOptimized: false)
!915 = !DISubroutineType(types: !916)
!916 = !{!811, !736}
!917 = !DISubprogram(name: "set", linkageName: "_ZN11ap_int_baseILi18ELb1EE3setEi", scope: !709, file: !710, line: 627, type: !908, isLocal: false, isDefinition: false, scopeLine: 627, flags: DIFlagPrototyped, isOptimized: false)
!918 = !DISubprogram(name: "set", linkageName: "_ZN11ap_int_baseILi18ELb1EE3setEib", scope: !709, file: !710, line: 633, type: !919, isLocal: false, isDefinition: false, scopeLine: 633, flags: DIFlagPrototyped, isOptimized: false)
!919 = !DISubroutineType(types: !920)
!920 = !{null, !736, !53, !64}
!921 = !DISubprogram(name: "lrotate", linkageName: "_ZN11ap_int_baseILi18ELb1EE7lrotateEi", scope: !709, file: !710, line: 640, type: !834, isLocal: false, isDefinition: false, scopeLine: 640, flags: DIFlagPrototyped, isOptimized: false)
!922 = !DISubprogram(name: "rrotate", linkageName: "_ZN11ap_int_baseILi18ELb1EE7rrotateEi", scope: !709, file: !710, line: 655, type: !834, isLocal: false, isDefinition: false, scopeLine: 655, flags: DIFlagPrototyped, isOptimized: false)
!923 = !DISubprogram(name: "reverse", linkageName: "_ZN11ap_int_baseILi18ELb1EE7reverseEv", scope: !709, file: !710, line: 670, type: !915, isLocal: false, isDefinition: false, scopeLine: 670, flags: DIFlagPrototyped, isOptimized: false)
!924 = !DISubprogram(name: "set_bit", linkageName: "_ZN11ap_int_baseILi18ELb1EE7set_bitEib", scope: !709, file: !710, line: 676, type: !919, isLocal: false, isDefinition: false, scopeLine: 676, flags: DIFlagPrototyped, isOptimized: false)
!925 = !DISubprogram(name: "get_bit", linkageName: "_ZNK11ap_int_baseILi18ELb1EE7get_bitEi", scope: !709, file: !710, line: 681, type: !912, isLocal: false, isDefinition: false, scopeLine: 681, flags: DIFlagPrototyped, isOptimized: false)
!926 = !DISubprogram(name: "b_not", linkageName: "_ZN11ap_int_baseILi18ELb1EE5b_notEv", scope: !709, file: !710, line: 686, type: !734, isLocal: false, isDefinition: false, scopeLine: 686, flags: DIFlagPrototyped, isOptimized: false)
!927 = !DISubprogram(name: "checkOverflowCsim", linkageName: "_ZNK11ap_int_baseILi18ELb1EE17checkOverflowCsimEibb", scope: !709, file: !710, line: 760, type: !928, isLocal: false, isDefinition: false, scopeLine: 760, flags: DIFlagPrototyped, isOptimized: false)
!928 = !DISubroutineType(types: !929)
!929 = !{!64, !731, !53, !64, !64}
!930 = !DISubprogram(name: "operator++", linkageName: "_ZN11ap_int_baseILi18ELb1EEppEv", scope: !709, file: !710, line: 865, type: !915, isLocal: false, isDefinition: false, scopeLine: 865, flags: DIFlagPrototyped, isOptimized: false)
!931 = !DISubprogram(name: "operator--", linkageName: "_ZN11ap_int_baseILi18ELb1EEmmEv", scope: !709, file: !710, line: 869, type: !915, isLocal: false, isDefinition: false, scopeLine: 869, flags: DIFlagPrototyped, isOptimized: false)
!932 = !DISubprogram(name: "operator++", linkageName: "_ZN11ap_int_baseILi18ELb1EEppEi", scope: !709, file: !710, line: 877, type: !933, isLocal: false, isDefinition: false, scopeLine: 877, flags: DIFlagPrototyped, isOptimized: false)
!933 = !DISubroutineType(types: !934)
!934 = !{!935, !736, !53}
!935 = !DIDerivedType(tag: DW_TAG_const_type, baseType: !936)
!936 = !DIDerivedType(tag: DW_TAG_typedef, name: "arg1", scope: !937, file: !710, line: 167, baseType: !938)
!937 = distinct !DICompositeType(tag: DW_TAG_structure_type, name: "RType<18, true>", scope: !709, file: !710, line: 134, size: 8, flags: DIFlagTypePassByValue, elements: !4, templateParams: !704, identifier: "_ZTSN11ap_int_baseILi18ELb1EE5RTypeILi18ELb1EEE")
!938 = !DIDerivedType(tag: DW_TAG_typedef, name: "type", scope: !703, file: !710, line: 103, baseType: !706)
!939 = !DISubprogram(name: "operator--", linkageName: "_ZN11ap_int_baseILi18ELb1EEmmEi", scope: !709, file: !710, line: 882, type: !933, isLocal: false, isDefinition: false, scopeLine: 882, flags: DIFlagPrototyped, isOptimized: false)
!940 = !DISubprogram(name: "operator+", linkageName: "_ZNK11ap_int_baseILi18ELb1EEpsEv", scope: !709, file: !710, line: 891, type: !941, isLocal: false, isDefinition: false, scopeLine: 891, flags: DIFlagPrototyped, isOptimized: false)
!941 = !DISubroutineType(types: !942)
!942 = !{!936, !731}
!943 = !DISubprogram(name: "operator-", linkageName: "_ZNK11ap_int_baseILi18ELb1EEngEv", scope: !709, file: !710, line: 894, type: !944, isLocal: false, isDefinition: false, scopeLine: 894, flags: DIFlagPrototyped, isOptimized: false)
!944 = !DISubroutineType(types: !945)
!945 = !{!946, !731}
!946 = !DIDerivedType(tag: DW_TAG_typedef, name: "minus", scope: !947, file: !710, line: 163, baseType: !948)
!947 = distinct !DICompositeType(tag: DW_TAG_structure_type, name: "RType<1, false>", scope: !709, file: !710, line: 134, size: 8, flags: DIFlagTypePassByValue, elements: !4, templateParams: !461, identifier: "_ZTSN11ap_int_baseILi18ELb1EE5RTypeILi1ELb0EEE")
!948 = !DIDerivedType(tag: DW_TAG_typedef, name: "type", scope: !949, file: !710, line: 103, baseType: !952)
!949 = distinct !DICompositeType(tag: DW_TAG_structure_type, name: "_ap_int_factory<19, true>", file: !710, line: 103, size: 8, flags: DIFlagTypePassByValue, elements: !4, templateParams: !950, identifier: "_ZTS15_ap_int_factoryILi19ELb1EE")
!950 = !{!951, !425}
!951 = !DITemplateValueParameter(name: "_AP_W2", type: !53, value: i32 19)
!952 = distinct !DICompositeType(tag: DW_TAG_structure_type, name: "ap_int<19>", file: !429, line: 18, size: 32, flags: DIFlagTypePassByValue, elements: !953, templateParams: !1244, identifier: "_ZTS6ap_intILi19EE")
!953 = !{!954, !1228, !1232, !1235, !1238}
!954 = !DIDerivedType(tag: DW_TAG_inheritance, scope: !952, baseType: !955)
!955 = distinct !DICompositeType(tag: DW_TAG_structure_type, name: "ap_int_base<19, true>", file: !710, line: 108, size: 32, flags: DIFlagTypePassByValue, elements: !956, templateParams: !1226, identifier: "_ZTS11ap_int_baseILi19ELb1EE")
!956 = !{!957, !971, !972, !973, !978, !982, !985, !988, !991, !994, !997, !1000, !1003, !1006, !1009, !1012, !1015, !1018, !1021, !1024, !1027, !1030, !1033, !1038, !1042, !1047, !1048, !1052, !1055, !1058, !1061, !1064, !1067, !1070, !1073, !1076, !1079, !1082, !1085, !1088, !1091, !1095, !1098, !1101, !1104, !1107, !1110, !1113, !1114, !1117, !1120, !1123, !1126, !1129, !1132, !1135, !1138, !1142, !1143, !1144, !1145, !1146, !1149, !1150, !1153, !1156, !1157, !1160, !1161, !1162, !1163, !1164, !1165, !1166, !1169, !1170, !1171, !1177, !1178, !1181, !1191, !1192, !1193, !1197, !1200, !1203, !1206, !1207, !1208, !1212, !1213, !1214, !1215, !1216, !1217, !1218, !1219, !1220, !1221, !1222}
!957 = !DIDerivedType(tag: DW_TAG_inheritance, scope: !955, baseType: !958)
!958 = distinct !DICompositeType(tag: DW_TAG_structure_type, name: "ssdm_int<19, true>", file: !443, line: 511, size: 32, flags: DIFlagTypePassByValue, elements: !959, templateParams: !969, identifier: "_ZTS8ssdm_intILi19ELb1EE")
!959 = !{!960, !962, !966}
!960 = !DIDerivedType(tag: DW_TAG_member, name: "V", scope: !958, file: !443, line: 513, baseType: !961, size: 19, align: 32)
!961 = !DIBasicType(name: "int19", size: 19, encoding: DW_ATE_signed)
!962 = !DISubprogram(name: "ssdm_int", scope: !958, file: !443, line: 514, type: !963, isLocal: false, isDefinition: false, scopeLine: 514, flags: DIFlagPrototyped, isOptimized: false)
!963 = !DISubroutineType(types: !964)
!964 = !{null, !965}
!965 = !DIDerivedType(tag: DW_TAG_pointer_type, baseType: !958, size: 64, flags: DIFlagArtificial | DIFlagObjectPointer)
!966 = !DISubprogram(name: "ssdm_int", scope: !958, file: !443, line: 515, type: !967, isLocal: false, isDefinition: false, scopeLine: 515, flags: DIFlagPrototyped, isOptimized: false)
!967 = !DISubroutineType(types: !968)
!968 = !{null, !965, !961}
!969 = !{!970, !63}
!970 = !DITemplateValueParameter(name: "_AP_N", type: !53, value: i32 19)
!971 = !DIDerivedType(tag: DW_TAG_member, name: "width", scope: !955, file: !710, line: 130, baseType: !66, flags: DIFlagStaticMember, extraData: i32 19)
!972 = !DIDerivedType(tag: DW_TAG_member, name: "sign_flag", scope: !955, file: !710, line: 131, baseType: !118, flags: DIFlagStaticMember, extraData: i1 true)
!973 = !DISubprogram(name: "countLeadingOnes", linkageName: "_ZNK11ap_int_baseILi19ELb1EE16countLeadingOnesEv", scope: !955, file: !710, line: 110, type: !974, isLocal: false, isDefinition: false, scopeLine: 110, flags: DIFlagPrivate | DIFlagPrototyped, isOptimized: false)
!974 = !DISubroutineType(types: !975)
!975 = !{!53, !976}
!976 = !DIDerivedType(tag: DW_TAG_pointer_type, baseType: !977, size: 64, flags: DIFlagArtificial | DIFlagObjectPointer)
!977 = !DIDerivedType(tag: DW_TAG_const_type, baseType: !955)
!978 = !DISubprogram(name: "ap_int_base", scope: !955, file: !710, line: 175, type: !979, isLocal: false, isDefinition: false, scopeLine: 175, flags: DIFlagPrototyped, isOptimized: false)
!979 = !DISubroutineType(types: !980)
!980 = !{null, !981}
!981 = !DIDerivedType(tag: DW_TAG_pointer_type, baseType: !955, size: 64, flags: DIFlagArtificial | DIFlagObjectPointer)
!982 = !DISubprogram(name: "ap_int_base", scope: !955, file: !710, line: 208, type: !983, isLocal: false, isDefinition: false, scopeLine: 208, flags: DIFlagPrototyped, isOptimized: false)
!983 = !DISubroutineType(types: !984)
!984 = !{null, !981, !118}
!985 = !DISubprogram(name: "ap_int_base", scope: !955, file: !710, line: 209, type: !986, isLocal: false, isDefinition: false, scopeLine: 209, flags: DIFlagPrototyped, isOptimized: false)
!986 = !DISubroutineType(types: !987)
!987 = !{null, !981, !109}
!988 = !DISubprogram(name: "ap_int_base", scope: !955, file: !710, line: 210, type: !989, isLocal: false, isDefinition: false, scopeLine: 210, flags: DIFlagPrototyped, isOptimized: false)
!989 = !DISubroutineType(types: !990)
!990 = !{null, !981, !125}
!991 = !DISubprogram(name: "ap_int_base", scope: !955, file: !710, line: 211, type: !992, isLocal: false, isDefinition: false, scopeLine: 211, flags: DIFlagPrototyped, isOptimized: false)
!992 = !DISubroutineType(types: !993)
!993 = !{null, !981, !129}
!994 = !DISubprogram(name: "ap_int_base", scope: !955, file: !710, line: 212, type: !995, isLocal: false, isDefinition: false, scopeLine: 212, flags: DIFlagPrototyped, isOptimized: false)
!995 = !DISubroutineType(types: !996)
!996 = !{null, !981, !134}
!997 = !DISubprogram(name: "ap_int_base", scope: !955, file: !710, line: 213, type: !998, isLocal: false, isDefinition: false, scopeLine: 213, flags: DIFlagPrototyped, isOptimized: false)
!998 = !DISubroutineType(types: !999)
!999 = !{null, !981, !139}
!1000 = !DISubprogram(name: "ap_int_base", scope: !955, file: !710, line: 214, type: !1001, isLocal: false, isDefinition: false, scopeLine: 214, flags: DIFlagPrototyped, isOptimized: false)
!1001 = !DISubroutineType(types: !1002)
!1002 = !{null, !981, !66}
!1003 = !DISubprogram(name: "ap_int_base", scope: !955, file: !710, line: 215, type: !1004, isLocal: false, isDefinition: false, scopeLine: 215, flags: DIFlagPrototyped, isOptimized: false)
!1004 = !DISubroutineType(types: !1005)
!1005 = !{null, !981, !147}
!1006 = !DISubprogram(name: "ap_int_base", scope: !955, file: !710, line: 216, type: !1007, isLocal: false, isDefinition: false, scopeLine: 216, flags: DIFlagPrototyped, isOptimized: false)
!1007 = !DISubroutineType(types: !1008)
!1008 = !{null, !981, !152}
!1009 = !DISubprogram(name: "ap_int_base", scope: !955, file: !710, line: 217, type: !1010, isLocal: false, isDefinition: false, scopeLine: 217, flags: DIFlagPrototyped, isOptimized: false)
!1010 = !DISubroutineType(types: !1011)
!1011 = !{null, !981, !157}
!1012 = !DISubprogram(name: "ap_int_base", scope: !955, file: !710, line: 218, type: !1013, isLocal: false, isDefinition: false, scopeLine: 218, flags: DIFlagPrototyped, isOptimized: false)
!1013 = !DISubroutineType(types: !1014)
!1014 = !{null, !981, !770}
!1015 = !DISubprogram(name: "ap_int_base", scope: !955, file: !710, line: 219, type: !1016, isLocal: false, isDefinition: false, scopeLine: 219, flags: DIFlagPrototyped, isOptimized: false)
!1016 = !DISubroutineType(types: !1017)
!1017 = !{null, !981, !776}
!1018 = !DISubprogram(name: "ap_int_base", scope: !955, file: !710, line: 224, type: !1019, isLocal: false, isDefinition: false, scopeLine: 224, flags: DIFlagPrototyped, isOptimized: false)
!1019 = !DISubroutineType(types: !1020)
!1020 = !{null, !981, !442}
!1021 = !DISubprogram(name: "ap_int_base", scope: !955, file: !710, line: 230, type: !1022, isLocal: false, isDefinition: false, scopeLine: 230, flags: DIFlagPrototyped, isOptimized: false)
!1022 = !DISubroutineType(types: !1023)
!1023 = !{null, !981, !178}
!1024 = !DISubprogram(name: "ap_int_base", scope: !955, file: !710, line: 289, type: !1025, isLocal: false, isDefinition: false, scopeLine: 289, flags: DIFlagPrototyped, isOptimized: false)
!1025 = !DISubroutineType(types: !1026)
!1026 = !{null, !981, !174}
!1027 = !DISubprogram(name: "ap_int_base", scope: !955, file: !710, line: 385, type: !1028, isLocal: false, isDefinition: false, scopeLine: 385, flags: DIFlagPrototyped, isOptimized: false)
!1028 = !DISubroutineType(types: !1029)
!1029 = !{null, !981, !108}
!1030 = !DISubprogram(name: "ap_int_base", scope: !955, file: !710, line: 391, type: !1031, isLocal: false, isDefinition: false, scopeLine: 391, flags: DIFlagPrototyped, isOptimized: false)
!1031 = !DISubroutineType(types: !1032)
!1032 = !{null, !981, !108, !114}
!1033 = !DISubprogram(name: "read", linkageName: "_ZNV11ap_int_baseILi19ELb1EE4readEv", scope: !955, file: !710, line: 413, type: !1034, isLocal: false, isDefinition: false, scopeLine: 413, flags: DIFlagPrototyped, isOptimized: false)
!1034 = !DISubroutineType(types: !1035)
!1035 = !{!955, !1036}
!1036 = !DIDerivedType(tag: DW_TAG_pointer_type, baseType: !1037, size: 64, flags: DIFlagArtificial | DIFlagObjectPointer)
!1037 = !DIDerivedType(tag: DW_TAG_volatile_type, baseType: !955)
!1038 = !DISubprogram(name: "write", linkageName: "_ZNV11ap_int_baseILi19ELb1EE5writeERKS0_", scope: !955, file: !710, line: 420, type: !1039, isLocal: false, isDefinition: false, scopeLine: 420, flags: DIFlagPrototyped, isOptimized: false)
!1039 = !DISubroutineType(types: !1040)
!1040 = !{null, !1036, !1041}
!1041 = !DIDerivedType(tag: DW_TAG_reference_type, baseType: !977, size: 64)
!1042 = !DISubprogram(name: "operator=", linkageName: "_ZNV11ap_int_baseILi19ELb1EEaSERVKS0_", scope: !955, file: !710, line: 432, type: !1043, isLocal: false, isDefinition: false, scopeLine: 432, flags: DIFlagPrototyped, isOptimized: false)
!1043 = !DISubroutineType(types: !1044)
!1044 = !{null, !1036, !1045}
!1045 = !DIDerivedType(tag: DW_TAG_reference_type, baseType: !1046, size: 64)
!1046 = !DIDerivedType(tag: DW_TAG_const_type, baseType: !1037)
!1047 = !DISubprogram(name: "operator=", linkageName: "_ZNV11ap_int_baseILi19ELb1EEaSERKS0_", scope: !955, file: !710, line: 442, type: !1039, isLocal: false, isDefinition: false, scopeLine: 442, flags: DIFlagPrototyped, isOptimized: false)
!1048 = !DISubprogram(name: "operator=", linkageName: "_ZN11ap_int_baseILi19ELb1EEaSERVKS0_", scope: !955, file: !710, line: 459, type: !1049, isLocal: false, isDefinition: false, scopeLine: 459, flags: DIFlagPrototyped, isOptimized: false)
!1049 = !DISubroutineType(types: !1050)
!1050 = !{!1051, !981, !1045}
!1051 = !DIDerivedType(tag: DW_TAG_reference_type, baseType: !955, size: 64)
!1052 = !DISubprogram(name: "operator=", linkageName: "_ZN11ap_int_baseILi19ELb1EEaSERKS0_", scope: !955, file: !710, line: 465, type: !1053, isLocal: false, isDefinition: false, scopeLine: 465, flags: DIFlagPrototyped, isOptimized: false)
!1053 = !DISubroutineType(types: !1054)
!1054 = !{!1051, !981, !1041}
!1055 = !DISubprogram(name: "operator=", linkageName: "_ZN11ap_int_baseILi19ELb1EEaSEb", scope: !955, file: !710, line: 479, type: !1056, isLocal: false, isDefinition: false, scopeLine: 479, flags: DIFlagPrototyped, isOptimized: false)
!1056 = !DISubroutineType(types: !1057)
!1057 = !{!1051, !981, !64}
!1058 = !DISubprogram(name: "operator=", linkageName: "_ZN11ap_int_baseILi19ELb1EEaSEc", scope: !955, file: !710, line: 480, type: !1059, isLocal: false, isDefinition: false, scopeLine: 480, flags: DIFlagPrototyped, isOptimized: false)
!1059 = !DISubroutineType(types: !1060)
!1060 = !{!1051, !981, !110}
!1061 = !DISubprogram(name: "operator=", linkageName: "_ZN11ap_int_baseILi19ELb1EEaSEa", scope: !955, file: !710, line: 481, type: !1062, isLocal: false, isDefinition: false, scopeLine: 481, flags: DIFlagPrototyped, isOptimized: false)
!1062 = !DISubroutineType(types: !1063)
!1063 = !{!1051, !981, !114}
!1064 = !DISubprogram(name: "operator=", linkageName: "_ZN11ap_int_baseILi19ELb1EEaSEh", scope: !955, file: !710, line: 482, type: !1065, isLocal: false, isDefinition: false, scopeLine: 482, flags: DIFlagPrototyped, isOptimized: false)
!1065 = !DISubroutineType(types: !1066)
!1066 = !{!1051, !981, !130}
!1067 = !DISubprogram(name: "operator=", linkageName: "_ZN11ap_int_baseILi19ELb1EEaSEs", scope: !955, file: !710, line: 483, type: !1068, isLocal: false, isDefinition: false, scopeLine: 483, flags: DIFlagPrototyped, isOptimized: false)
!1068 = !DISubroutineType(types: !1069)
!1069 = !{!1051, !981, !135}
!1070 = !DISubprogram(name: "operator=", linkageName: "_ZN11ap_int_baseILi19ELb1EEaSEt", scope: !955, file: !710, line: 484, type: !1071, isLocal: false, isDefinition: false, scopeLine: 484, flags: DIFlagPrototyped, isOptimized: false)
!1071 = !DISubroutineType(types: !1072)
!1072 = !{!1051, !981, !140}
!1073 = !DISubprogram(name: "operator=", linkageName: "_ZN11ap_int_baseILi19ELb1EEaSEi", scope: !955, file: !710, line: 485, type: !1074, isLocal: false, isDefinition: false, scopeLine: 485, flags: DIFlagPrototyped, isOptimized: false)
!1074 = !DISubroutineType(types: !1075)
!1075 = !{!1051, !981, !53}
!1076 = !DISubprogram(name: "operator=", linkageName: "_ZN11ap_int_baseILi19ELb1EEaSEj", scope: !955, file: !710, line: 486, type: !1077, isLocal: false, isDefinition: false, scopeLine: 486, flags: DIFlagPrototyped, isOptimized: false)
!1077 = !DISubroutineType(types: !1078)
!1078 = !{!1051, !981, !148}
!1079 = !DISubprogram(name: "operator=", linkageName: "_ZN11ap_int_baseILi19ELb1EEaSEl", scope: !955, file: !710, line: 487, type: !1080, isLocal: false, isDefinition: false, scopeLine: 487, flags: DIFlagPrototyped, isOptimized: false)
!1080 = !DISubroutineType(types: !1081)
!1081 = !{!1051, !981, !153}
!1082 = !DISubprogram(name: "operator=", linkageName: "_ZN11ap_int_baseILi19ELb1EEaSEm", scope: !955, file: !710, line: 488, type: !1083, isLocal: false, isDefinition: false, scopeLine: 488, flags: DIFlagPrototyped, isOptimized: false)
!1083 = !DISubroutineType(types: !1084)
!1084 = !{!1051, !981, !158}
!1085 = !DISubprogram(name: "operator=", linkageName: "_ZN11ap_int_baseILi19ELb1EEaSEx", scope: !955, file: !710, line: 489, type: !1086, isLocal: false, isDefinition: false, scopeLine: 489, flags: DIFlagPrototyped, isOptimized: false)
!1086 = !DISubroutineType(types: !1087)
!1087 = !{!1051, !981, !771}
!1088 = !DISubprogram(name: "operator=", linkageName: "_ZN11ap_int_baseILi19ELb1EEaSEy", scope: !955, file: !710, line: 490, type: !1089, isLocal: false, isDefinition: false, scopeLine: 490, flags: DIFlagPrototyped, isOptimized: false)
!1089 = !DISubroutineType(types: !1090)
!1090 = !{!1051, !981, !777}
!1091 = !DISubprogram(name: "operator long long", linkageName: "_ZNK11ap_int_baseILi19ELb1EEcvxEv", scope: !955, file: !710, line: 541, type: !1092, isLocal: false, isDefinition: false, scopeLine: 541, flags: DIFlagPrototyped, isOptimized: false)
!1092 = !DISubroutineType(types: !1093)
!1093 = !{!1094, !976}
!1094 = !DIDerivedType(tag: DW_TAG_typedef, name: "RetType", scope: !955, file: !710, line: 128, baseType: !855)
!1095 = !DISubprogram(name: "to_bool", linkageName: "_ZNK11ap_int_baseILi19ELb1EE7to_boolEv", scope: !955, file: !710, line: 546, type: !1096, isLocal: false, isDefinition: false, scopeLine: 546, flags: DIFlagPrototyped, isOptimized: false)
!1096 = !DISubroutineType(types: !1097)
!1097 = !{!64, !976}
!1098 = !DISubprogram(name: "to_char", linkageName: "_ZNK11ap_int_baseILi19ELb1EE7to_charEv", scope: !955, file: !710, line: 547, type: !1099, isLocal: false, isDefinition: false, scopeLine: 547, flags: DIFlagPrototyped, isOptimized: false)
!1099 = !DISubroutineType(types: !1100)
!1100 = !{!110, !976}
!1101 = !DISubprogram(name: "to_schar", linkageName: "_ZNK11ap_int_baseILi19ELb1EE8to_scharEv", scope: !955, file: !710, line: 548, type: !1102, isLocal: false, isDefinition: false, scopeLine: 548, flags: DIFlagPrototyped, isOptimized: false)
!1102 = !DISubroutineType(types: !1103)
!1103 = !{!114, !976}
!1104 = !DISubprogram(name: "to_uchar", linkageName: "_ZNK11ap_int_baseILi19ELb1EE8to_ucharEv", scope: !955, file: !710, line: 549, type: !1105, isLocal: false, isDefinition: false, scopeLine: 549, flags: DIFlagPrototyped, isOptimized: false)
!1105 = !DISubroutineType(types: !1106)
!1106 = !{!130, !976}
!1107 = !DISubprogram(name: "to_short", linkageName: "_ZNK11ap_int_baseILi19ELb1EE8to_shortEv", scope: !955, file: !710, line: 550, type: !1108, isLocal: false, isDefinition: false, scopeLine: 550, flags: DIFlagPrototyped, isOptimized: false)
!1108 = !DISubroutineType(types: !1109)
!1109 = !{!135, !976}
!1110 = !DISubprogram(name: "to_ushort", linkageName: "_ZNK11ap_int_baseILi19ELb1EE9to_ushortEv", scope: !955, file: !710, line: 551, type: !1111, isLocal: false, isDefinition: false, scopeLine: 551, flags: DIFlagPrototyped, isOptimized: false)
!1111 = !DISubroutineType(types: !1112)
!1112 = !{!140, !976}
!1113 = !DISubprogram(name: "to_int", linkageName: "_ZNK11ap_int_baseILi19ELb1EE6to_intEv", scope: !955, file: !710, line: 552, type: !974, isLocal: false, isDefinition: false, scopeLine: 552, flags: DIFlagPrototyped, isOptimized: false)
!1114 = !DISubprogram(name: "to_uint", linkageName: "_ZNK11ap_int_baseILi19ELb1EE7to_uintEv", scope: !955, file: !710, line: 553, type: !1115, isLocal: false, isDefinition: false, scopeLine: 553, flags: DIFlagPrototyped, isOptimized: false)
!1115 = !DISubroutineType(types: !1116)
!1116 = !{!148, !976}
!1117 = !DISubprogram(name: "to_long", linkageName: "_ZNK11ap_int_baseILi19ELb1EE7to_longEv", scope: !955, file: !710, line: 554, type: !1118, isLocal: false, isDefinition: false, scopeLine: 554, flags: DIFlagPrototyped, isOptimized: false)
!1118 = !DISubroutineType(types: !1119)
!1119 = !{!153, !976}
!1120 = !DISubprogram(name: "to_ulong", linkageName: "_ZNK11ap_int_baseILi19ELb1EE8to_ulongEv", scope: !955, file: !710, line: 555, type: !1121, isLocal: false, isDefinition: false, scopeLine: 555, flags: DIFlagPrototyped, isOptimized: false)
!1121 = !DISubroutineType(types: !1122)
!1122 = !{!158, !976}
!1123 = !DISubprogram(name: "to_int64", linkageName: "_ZNK11ap_int_baseILi19ELb1EE8to_int64Ev", scope: !955, file: !710, line: 556, type: !1124, isLocal: false, isDefinition: false, scopeLine: 556, flags: DIFlagPrototyped, isOptimized: false)
!1124 = !DISubroutineType(types: !1125)
!1125 = !{!771, !976}
!1126 = !DISubprogram(name: "to_uint64", linkageName: "_ZNK11ap_int_baseILi19ELb1EE9to_uint64Ev", scope: !955, file: !710, line: 557, type: !1127, isLocal: false, isDefinition: false, scopeLine: 557, flags: DIFlagPrototyped, isOptimized: false)
!1127 = !DISubroutineType(types: !1128)
!1128 = !{!777, !976}
!1129 = !DISubprogram(name: "to_half", linkageName: "_ZNK11ap_int_baseILi19ELb1EE7to_halfEv", scope: !955, file: !710, line: 558, type: !1130, isLocal: false, isDefinition: false, scopeLine: 558, flags: DIFlagPrototyped, isOptimized: false)
!1130 = !DISubroutineType(types: !1131)
!1131 = !{!442, !976}
!1132 = !DISubprogram(name: "to_float", linkageName: "_ZNK11ap_int_baseILi19ELb1EE8to_floatEv", scope: !955, file: !710, line: 559, type: !1133, isLocal: false, isDefinition: false, scopeLine: 559, flags: DIFlagPrototyped, isOptimized: false)
!1133 = !DISubroutineType(types: !1134)
!1134 = !{!178, !976}
!1135 = !DISubprogram(name: "to_double", linkageName: "_ZNK11ap_int_baseILi19ELb1EE9to_doubleEv", scope: !955, file: !710, line: 560, type: !1136, isLocal: false, isDefinition: false, scopeLine: 560, flags: DIFlagPrototyped, isOptimized: false)
!1136 = !DISubroutineType(types: !1137)
!1137 = !{!174, !976}
!1138 = !DISubprogram(name: "length", linkageName: "_ZNVK11ap_int_baseILi19ELb1EE6lengthEv", scope: !955, file: !710, line: 584, type: !1139, isLocal: false, isDefinition: false, scopeLine: 584, flags: DIFlagPrototyped, isOptimized: false)
!1139 = !DISubroutineType(types: !1140)
!1140 = !{!53, !1141}
!1141 = !DIDerivedType(tag: DW_TAG_pointer_type, baseType: !1046, size: 64, flags: DIFlagArtificial | DIFlagObjectPointer)
!1142 = !DISubprogram(name: "length", linkageName: "_ZNK11ap_int_baseILi19ELb1EE6lengthEv", scope: !955, file: !710, line: 585, type: !974, isLocal: false, isDefinition: false, scopeLine: 585, flags: DIFlagPrototyped, isOptimized: false)
!1143 = !DISubprogram(name: "iszero", linkageName: "_ZNK11ap_int_baseILi19ELb1EE6iszeroEv", scope: !955, file: !710, line: 588, type: !1096, isLocal: false, isDefinition: false, scopeLine: 588, flags: DIFlagPrototyped, isOptimized: false)
!1144 = !DISubprogram(name: "is_zero", linkageName: "_ZNK11ap_int_baseILi19ELb1EE7is_zeroEv", scope: !955, file: !710, line: 591, type: !1096, isLocal: false, isDefinition: false, scopeLine: 591, flags: DIFlagPrototyped, isOptimized: false)
!1145 = !DISubprogram(name: "sign", linkageName: "_ZNK11ap_int_baseILi19ELb1EE4signEv", scope: !955, file: !710, line: 594, type: !1096, isLocal: false, isDefinition: false, scopeLine: 594, flags: DIFlagPrototyped, isOptimized: false)
!1146 = !DISubprogram(name: "clear", linkageName: "_ZN11ap_int_baseILi19ELb1EE5clearEi", scope: !955, file: !710, line: 603, type: !1147, isLocal: false, isDefinition: false, scopeLine: 603, flags: DIFlagPrototyped, isOptimized: false)
!1147 = !DISubroutineType(types: !1148)
!1148 = !{null, !981, !53}
!1149 = !DISubprogram(name: "invert", linkageName: "_ZN11ap_int_baseILi19ELb1EE6invertEi", scope: !955, file: !710, line: 609, type: !1147, isLocal: false, isDefinition: false, scopeLine: 609, flags: DIFlagPrototyped, isOptimized: false)
!1150 = !DISubprogram(name: "test", linkageName: "_ZNK11ap_int_baseILi19ELb1EE4testEi", scope: !955, file: !710, line: 618, type: !1151, isLocal: false, isDefinition: false, scopeLine: 618, flags: DIFlagPrototyped, isOptimized: false)
!1151 = !DISubroutineType(types: !1152)
!1152 = !{!64, !976, !53}
!1153 = !DISubprogram(name: "get", linkageName: "_ZN11ap_int_baseILi19ELb1EE3getEv", scope: !955, file: !710, line: 624, type: !1154, isLocal: false, isDefinition: false, scopeLine: 624, flags: DIFlagPrototyped, isOptimized: false)
!1154 = !DISubroutineType(types: !1155)
!1155 = !{!1051, !981}
!1156 = !DISubprogram(name: "set", linkageName: "_ZN11ap_int_baseILi19ELb1EE3setEi", scope: !955, file: !710, line: 627, type: !1147, isLocal: false, isDefinition: false, scopeLine: 627, flags: DIFlagPrototyped, isOptimized: false)
!1157 = !DISubprogram(name: "set", linkageName: "_ZN11ap_int_baseILi19ELb1EE3setEib", scope: !955, file: !710, line: 633, type: !1158, isLocal: false, isDefinition: false, scopeLine: 633, flags: DIFlagPrototyped, isOptimized: false)
!1158 = !DISubroutineType(types: !1159)
!1159 = !{null, !981, !53, !64}
!1160 = !DISubprogram(name: "lrotate", linkageName: "_ZN11ap_int_baseILi19ELb1EE7lrotateEi", scope: !955, file: !710, line: 640, type: !1074, isLocal: false, isDefinition: false, scopeLine: 640, flags: DIFlagPrototyped, isOptimized: false)
!1161 = !DISubprogram(name: "rrotate", linkageName: "_ZN11ap_int_baseILi19ELb1EE7rrotateEi", scope: !955, file: !710, line: 655, type: !1074, isLocal: false, isDefinition: false, scopeLine: 655, flags: DIFlagPrototyped, isOptimized: false)
!1162 = !DISubprogram(name: "reverse", linkageName: "_ZN11ap_int_baseILi19ELb1EE7reverseEv", scope: !955, file: !710, line: 670, type: !1154, isLocal: false, isDefinition: false, scopeLine: 670, flags: DIFlagPrototyped, isOptimized: false)
!1163 = !DISubprogram(name: "set_bit", linkageName: "_ZN11ap_int_baseILi19ELb1EE7set_bitEib", scope: !955, file: !710, line: 676, type: !1158, isLocal: false, isDefinition: false, scopeLine: 676, flags: DIFlagPrototyped, isOptimized: false)
!1164 = !DISubprogram(name: "get_bit", linkageName: "_ZNK11ap_int_baseILi19ELb1EE7get_bitEi", scope: !955, file: !710, line: 681, type: !1151, isLocal: false, isDefinition: false, scopeLine: 681, flags: DIFlagPrototyped, isOptimized: false)
!1165 = !DISubprogram(name: "b_not", linkageName: "_ZN11ap_int_baseILi19ELb1EE5b_notEv", scope: !955, file: !710, line: 686, type: !979, isLocal: false, isDefinition: false, scopeLine: 686, flags: DIFlagPrototyped, isOptimized: false)
!1166 = !DISubprogram(name: "checkOverflowCsim", linkageName: "_ZNK11ap_int_baseILi19ELb1EE17checkOverflowCsimEibb", scope: !955, file: !710, line: 760, type: !1167, isLocal: false, isDefinition: false, scopeLine: 760, flags: DIFlagPrototyped, isOptimized: false)
!1167 = !DISubroutineType(types: !1168)
!1168 = !{!64, !976, !53, !64, !64}
!1169 = !DISubprogram(name: "operator++", linkageName: "_ZN11ap_int_baseILi19ELb1EEppEv", scope: !955, file: !710, line: 865, type: !1154, isLocal: false, isDefinition: false, scopeLine: 865, flags: DIFlagPrototyped, isOptimized: false)
!1170 = !DISubprogram(name: "operator--", linkageName: "_ZN11ap_int_baseILi19ELb1EEmmEv", scope: !955, file: !710, line: 869, type: !1154, isLocal: false, isDefinition: false, scopeLine: 869, flags: DIFlagPrototyped, isOptimized: false)
!1171 = !DISubprogram(name: "operator++", linkageName: "_ZN11ap_int_baseILi19ELb1EEppEi", scope: !955, file: !710, line: 877, type: !1172, isLocal: false, isDefinition: false, scopeLine: 877, flags: DIFlagPrototyped, isOptimized: false)
!1172 = !DISubroutineType(types: !1173)
!1173 = !{!1174, !981, !53}
!1174 = !DIDerivedType(tag: DW_TAG_const_type, baseType: !1175)
!1175 = !DIDerivedType(tag: DW_TAG_typedef, name: "arg1", scope: !1176, file: !710, line: 167, baseType: !948)
!1176 = distinct !DICompositeType(tag: DW_TAG_structure_type, name: "RType<19, true>", scope: !955, file: !710, line: 134, size: 8, flags: DIFlagTypePassByValue, elements: !4, templateParams: !950, identifier: "_ZTSN11ap_int_baseILi19ELb1EE5RTypeILi19ELb1EEE")
!1177 = !DISubprogram(name: "operator--", linkageName: "_ZN11ap_int_baseILi19ELb1EEmmEi", scope: !955, file: !710, line: 882, type: !1172, isLocal: false, isDefinition: false, scopeLine: 882, flags: DIFlagPrototyped, isOptimized: false)
!1178 = !DISubprogram(name: "operator+", linkageName: "_ZNK11ap_int_baseILi19ELb1EEpsEv", scope: !955, file: !710, line: 891, type: !1179, isLocal: false, isDefinition: false, scopeLine: 891, flags: DIFlagPrototyped, isOptimized: false)
!1179 = !DISubroutineType(types: !1180)
!1180 = !{!1175, !976}
!1181 = !DISubprogram(name: "operator-", linkageName: "_ZNK11ap_int_baseILi19ELb1EEngEv", scope: !955, file: !710, line: 894, type: !1182, isLocal: false, isDefinition: false, scopeLine: 894, flags: DIFlagPrototyped, isOptimized: false)
!1182 = !DISubroutineType(types: !1183)
!1183 = !{!1184, !976}
!1184 = !DIDerivedType(tag: DW_TAG_typedef, name: "minus", scope: !1185, file: !710, line: 163, baseType: !1186)
!1185 = distinct !DICompositeType(tag: DW_TAG_structure_type, name: "RType<1, false>", scope: !955, file: !710, line: 134, size: 8, flags: DIFlagTypePassByValue, elements: !4, templateParams: !461, identifier: "_ZTSN11ap_int_baseILi19ELb1EE5RTypeILi1ELb0EEE")
!1186 = !DIDerivedType(tag: DW_TAG_typedef, name: "type", scope: !1187, file: !710, line: 103, baseType: !1190)
!1187 = distinct !DICompositeType(tag: DW_TAG_structure_type, name: "_ap_int_factory<20, true>", file: !710, line: 103, size: 8, flags: DIFlagTypePassByValue, elements: !4, templateParams: !1188, identifier: "_ZTS15_ap_int_factoryILi20ELb1EE")
!1188 = !{!1189, !425}
!1189 = !DITemplateValueParameter(name: "_AP_W2", type: !53, value: i32 20)
!1190 = distinct !DICompositeType(tag: DW_TAG_structure_type, name: "ap_int<20>", file: !772, line: 137, flags: DIFlagFwdDecl, identifier: "_ZTS6ap_intILi20EE")
!1191 = !DISubprogram(name: "operator!", linkageName: "_ZNK11ap_int_baseILi19ELb1EEntEv", scope: !955, file: !710, line: 901, type: !1096, isLocal: false, isDefinition: false, scopeLine: 901, flags: DIFlagPrototyped, isOptimized: false)
!1192 = !DISubprogram(name: "operator~", linkageName: "_ZNK11ap_int_baseILi19ELb1EEcoEv", scope: !955, file: !710, line: 907, type: !1179, isLocal: false, isDefinition: false, scopeLine: 907, flags: DIFlagPrototyped, isOptimized: false)
!1193 = !DISubprogram(name: "range", linkageName: "_ZN11ap_int_baseILi19ELb1EE5rangeEii", scope: !955, file: !710, line: 1045, type: !1194, isLocal: false, isDefinition: false, scopeLine: 1045, flags: DIFlagPrototyped, isOptimized: false)
!1194 = !DISubroutineType(types: !1195)
!1195 = !{!1196, !981, !53, !53}
!1196 = distinct !DICompositeType(tag: DW_TAG_structure_type, name: "ap_range_ref<19, true>", file: !772, line: 143, flags: DIFlagFwdDecl, identifier: "_ZTS12ap_range_refILi19ELb1EE")
!1197 = !DISubprogram(name: "range", linkageName: "_ZNK11ap_int_baseILi19ELb1EE5rangeEii", scope: !955, file: !710, line: 1052, type: !1198, isLocal: false, isDefinition: false, scopeLine: 1052, flags: DIFlagPrototyped, isOptimized: false)
!1198 = !DISubroutineType(types: !1199)
!1199 = !{!1196, !976, !53, !53}
!1200 = !DISubprogram(name: "range", linkageName: "_ZN11ap_int_baseILi19ELb1EE5rangeEv", scope: !955, file: !710, line: 1076, type: !1201, isLocal: false, isDefinition: false, scopeLine: 1076, flags: DIFlagPrototyped, isOptimized: false)
!1201 = !DISubroutineType(types: !1202)
!1202 = !{!1196, !981}
!1203 = !DISubprogram(name: "range", linkageName: "_ZNK11ap_int_baseILi19ELb1EE5rangeEv", scope: !955, file: !710, line: 1080, type: !1204, isLocal: false, isDefinition: false, scopeLine: 1080, flags: DIFlagPrototyped, isOptimized: false)
!1204 = !DISubroutineType(types: !1205)
!1205 = !{!1196, !976}
!1206 = !DISubprogram(name: "operator()", linkageName: "_ZN11ap_int_baseILi19ELb1EEclEii", scope: !955, file: !710, line: 1084, type: !1194, isLocal: false, isDefinition: false, scopeLine: 1084, flags: DIFlagPrototyped, isOptimized: false)
!1207 = !DISubprogram(name: "operator()", linkageName: "_ZNK11ap_int_baseILi19ELb1EEclEii", scope: !955, file: !710, line: 1088, type: !1198, isLocal: false, isDefinition: false, scopeLine: 1088, flags: DIFlagPrototyped, isOptimized: false)
!1208 = !DISubprogram(name: "operator[]", linkageName: "_ZN11ap_int_baseILi19ELb1EEixEi", scope: !955, file: !710, line: 1126, type: !1209, isLocal: false, isDefinition: false, scopeLine: 1126, flags: DIFlagPrototyped, isOptimized: false)
!1209 = !DISubroutineType(types: !1210)
!1210 = !{!1211, !981, !53}
!1211 = distinct !DICompositeType(tag: DW_TAG_structure_type, name: "ap_bit_ref<19, true>", file: !772, line: 146, flags: DIFlagFwdDecl, identifier: "_ZTS10ap_bit_refILi19ELb1EE")
!1212 = !DISubprogram(name: "operator[]", linkageName: "_ZNK11ap_int_baseILi19ELb1EEixEi", scope: !955, file: !710, line: 1142, type: !1151, isLocal: false, isDefinition: false, scopeLine: 1142, flags: DIFlagPrototyped, isOptimized: false)
!1213 = !DISubprogram(name: "bit", linkageName: "_ZN11ap_int_baseILi19ELb1EE3bitEi", scope: !955, file: !710, line: 1155, type: !1209, isLocal: false, isDefinition: false, scopeLine: 1155, flags: DIFlagPrototyped, isOptimized: false)
!1214 = !DISubprogram(name: "bit", linkageName: "_ZNK11ap_int_baseILi19ELb1EE3bitEi", scope: !955, file: !710, line: 1170, type: !1151, isLocal: false, isDefinition: false, scopeLine: 1170, flags: DIFlagPrototyped, isOptimized: false)
!1215 = !DISubprogram(name: "countLeadingZeros", linkageName: "_ZNK11ap_int_baseILi19ELb1EE17countLeadingZerosEv", scope: !955, file: !710, line: 1193, type: !974, isLocal: false, isDefinition: false, scopeLine: 1193, flags: DIFlagPrototyped, isOptimized: false)
!1216 = !DISubprogram(name: "and_reduce", linkageName: "_ZNK11ap_int_baseILi19ELb1EE10and_reduceEv", scope: !955, file: !710, line: 1413, type: !1096, isLocal: false, isDefinition: false, scopeLine: 1413, flags: DIFlagPrototyped, isOptimized: false)
!1217 = !DISubprogram(name: "nand_reduce", linkageName: "_ZNK11ap_int_baseILi19ELb1EE11nand_reduceEv", scope: !955, file: !710, line: 1414, type: !1096, isLocal: false, isDefinition: false, scopeLine: 1414, flags: DIFlagPrototyped, isOptimized: false)
!1218 = !DISubprogram(name: "or_reduce", linkageName: "_ZNK11ap_int_baseILi19ELb1EE9or_reduceEv", scope: !955, file: !710, line: 1415, type: !1096, isLocal: false, isDefinition: false, scopeLine: 1415, flags: DIFlagPrototyped, isOptimized: false)
!1219 = !DISubprogram(name: "nor_reduce", linkageName: "_ZNK11ap_int_baseILi19ELb1EE10nor_reduceEv", scope: !955, file: !710, line: 1416, type: !1096, isLocal: false, isDefinition: false, scopeLine: 1416, flags: DIFlagPrototyped, isOptimized: false)
!1220 = !DISubprogram(name: "xor_reduce", linkageName: "_ZNK11ap_int_baseILi19ELb1EE10xor_reduceEv", scope: !955, file: !710, line: 1417, type: !1096, isLocal: false, isDefinition: false, scopeLine: 1417, flags: DIFlagPrototyped, isOptimized: false)
!1221 = !DISubprogram(name: "xnor_reduce", linkageName: "_ZNK11ap_int_baseILi19ELb1EE11xnor_reduceEv", scope: !955, file: !710, line: 1418, type: !1096, isLocal: false, isDefinition: false, scopeLine: 1418, flags: DIFlagPrototyped, isOptimized: false)
!1222 = !DISubprogram(name: "to_string", linkageName: "_ZNK11ap_int_baseILi19ELb1EE9to_stringEab", scope: !955, file: !710, line: 1433, type: !1223, isLocal: false, isDefinition: false, scopeLine: 1433, flags: DIFlagPrototyped, isOptimized: false)
!1223 = !DISubroutineType(types: !1224)
!1224 = !{!1225, !976, !114, !64}
!1225 = !DIDerivedType(tag: DW_TAG_pointer_type, baseType: !110, size: 64)
!1226 = !{!1227, !63}
!1227 = !DITemplateValueParameter(name: "_AP_W", type: !53, value: i32 19)
!1228 = !DISubprogram(name: "ap_int", scope: !952, file: !429, line: 140, type: !1229, isLocal: false, isDefinition: false, scopeLine: 140, flags: DIFlagPrototyped, isOptimized: false)
!1229 = !DISubroutineType(types: !1230)
!1230 = !{null, !1231, !174}
!1231 = !DIDerivedType(tag: DW_TAG_pointer_type, baseType: !952, size: 64, flags: DIFlagArtificial | DIFlagObjectPointer)
!1232 = !DISubprogram(name: "ap_int", scope: !952, file: !429, line: 141, type: !1233, isLocal: false, isDefinition: false, scopeLine: 141, flags: DIFlagPrototyped, isOptimized: false)
!1233 = !DISubroutineType(types: !1234)
!1234 = !{null, !1231, !178}
!1235 = !DISubprogram(name: "ap_int", scope: !952, file: !429, line: 142, type: !1236, isLocal: false, isDefinition: false, scopeLine: 142, flags: DIFlagPrototyped, isOptimized: false)
!1236 = !DISubroutineType(types: !1237)
!1237 = !{null, !1231, !442}
!1238 = !DISubprogram(name: "operator=", linkageName: "_ZN6ap_intILi19EEaSERKS0_", scope: !952, file: !429, line: 152, type: !1239, isLocal: false, isDefinition: false, scopeLine: 152, flags: DIFlagPrototyped, isOptimized: false)
!1239 = !DISubroutineType(types: !1240)
!1240 = !{!1241, !1231, !1242}
!1241 = !DIDerivedType(tag: DW_TAG_reference_type, baseType: !952, size: 64)
!1242 = !DIDerivedType(tag: DW_TAG_reference_type, baseType: !1243, size: 64)
!1243 = !DIDerivedType(tag: DW_TAG_const_type, baseType: !952)
!1244 = !{!1227}
!1245 = !DISubprogram(name: "operator!", linkageName: "_ZNK11ap_int_baseILi18ELb1EEntEv", scope: !709, file: !710, line: 901, type: !857, isLocal: false, isDefinition: false, scopeLine: 901, flags: DIFlagPrototyped, isOptimized: false)
!1246 = !DISubprogram(name: "operator~", linkageName: "_ZNK11ap_int_baseILi18ELb1EEcoEv", scope: !709, file: !710, line: 907, type: !941, isLocal: false, isDefinition: false, scopeLine: 907, flags: DIFlagPrototyped, isOptimized: false)
!1247 = !DISubprogram(name: "range", linkageName: "_ZN11ap_int_baseILi18ELb1EE5rangeEii", scope: !709, file: !710, line: 1045, type: !1248, isLocal: false, isDefinition: false, scopeLine: 1045, flags: DIFlagPrototyped, isOptimized: false)
!1248 = !DISubroutineType(types: !1249)
!1249 = !{!1250, !736, !53, !53}
!1250 = distinct !DICompositeType(tag: DW_TAG_structure_type, name: "ap_range_ref<18, true>", file: !772, line: 143, flags: DIFlagFwdDecl, identifier: "_ZTS12ap_range_refILi18ELb1EE")
!1251 = !DISubprogram(name: "range", linkageName: "_ZNK11ap_int_baseILi18ELb1EE5rangeEii", scope: !709, file: !710, line: 1052, type: !1252, isLocal: false, isDefinition: false, scopeLine: 1052, flags: DIFlagPrototyped, isOptimized: false)
!1252 = !DISubroutineType(types: !1253)
!1253 = !{!1250, !731, !53, !53}
!1254 = !DISubprogram(name: "range", linkageName: "_ZN11ap_int_baseILi18ELb1EE5rangeEv", scope: !709, file: !710, line: 1076, type: !1255, isLocal: false, isDefinition: false, scopeLine: 1076, flags: DIFlagPrototyped, isOptimized: false)
!1255 = !DISubroutineType(types: !1256)
!1256 = !{!1250, !736}
!1257 = !DISubprogram(name: "range", linkageName: "_ZNK11ap_int_baseILi18ELb1EE5rangeEv", scope: !709, file: !710, line: 1080, type: !1258, isLocal: false, isDefinition: false, scopeLine: 1080, flags: DIFlagPrototyped, isOptimized: false)
!1258 = !DISubroutineType(types: !1259)
!1259 = !{!1250, !731}
!1260 = !DISubprogram(name: "operator()", linkageName: "_ZN11ap_int_baseILi18ELb1EEclEii", scope: !709, file: !710, line: 1084, type: !1248, isLocal: false, isDefinition: false, scopeLine: 1084, flags: DIFlagPrototyped, isOptimized: false)
!1261 = !DISubprogram(name: "operator()", linkageName: "_ZNK11ap_int_baseILi18ELb1EEclEii", scope: !709, file: !710, line: 1088, type: !1252, isLocal: false, isDefinition: false, scopeLine: 1088, flags: DIFlagPrototyped, isOptimized: false)
!1262 = !DISubprogram(name: "operator[]", linkageName: "_ZN11ap_int_baseILi18ELb1EEixEi", scope: !709, file: !710, line: 1126, type: !1263, isLocal: false, isDefinition: false, scopeLine: 1126, flags: DIFlagPrototyped, isOptimized: false)
!1263 = !DISubroutineType(types: !1264)
!1264 = !{!1265, !736, !53}
!1265 = distinct !DICompositeType(tag: DW_TAG_structure_type, name: "ap_bit_ref<18, true>", file: !772, line: 146, flags: DIFlagFwdDecl, identifier: "_ZTS10ap_bit_refILi18ELb1EE")
!1266 = !DISubprogram(name: "operator[]", linkageName: "_ZNK11ap_int_baseILi18ELb1EEixEi", scope: !709, file: !710, line: 1142, type: !912, isLocal: false, isDefinition: false, scopeLine: 1142, flags: DIFlagPrototyped, isOptimized: false)
!1267 = !DISubprogram(name: "bit", linkageName: "_ZN11ap_int_baseILi18ELb1EE3bitEi", scope: !709, file: !710, line: 1155, type: !1263, isLocal: false, isDefinition: false, scopeLine: 1155, flags: DIFlagPrototyped, isOptimized: false)
!1268 = !DISubprogram(name: "bit", linkageName: "_ZNK11ap_int_baseILi18ELb1EE3bitEi", scope: !709, file: !710, line: 1170, type: !912, isLocal: false, isDefinition: false, scopeLine: 1170, flags: DIFlagPrototyped, isOptimized: false)
!1269 = !DISubprogram(name: "countLeadingZeros", linkageName: "_ZNK11ap_int_baseILi18ELb1EE17countLeadingZerosEv", scope: !709, file: !710, line: 1193, type: !729, isLocal: false, isDefinition: false, scopeLine: 1193, flags: DIFlagPrototyped, isOptimized: false)
!1270 = !DISubprogram(name: "and_reduce", linkageName: "_ZNK11ap_int_baseILi18ELb1EE10and_reduceEv", scope: !709, file: !710, line: 1413, type: !857, isLocal: false, isDefinition: false, scopeLine: 1413, flags: DIFlagPrototyped, isOptimized: false)
!1271 = !DISubprogram(name: "nand_reduce", linkageName: "_ZNK11ap_int_baseILi18ELb1EE11nand_reduceEv", scope: !709, file: !710, line: 1414, type: !857, isLocal: false, isDefinition: false, scopeLine: 1414, flags: DIFlagPrototyped, isOptimized: false)
!1272 = !DISubprogram(name: "or_reduce", linkageName: "_ZNK11ap_int_baseILi18ELb1EE9or_reduceEv", scope: !709, file: !710, line: 1415, type: !857, isLocal: false, isDefinition: false, scopeLine: 1415, flags: DIFlagPrototyped, isOptimized: false)
!1273 = !DISubprogram(name: "nor_reduce", linkageName: "_ZNK11ap_int_baseILi18ELb1EE10nor_reduceEv", scope: !709, file: !710, line: 1416, type: !857, isLocal: false, isDefinition: false, scopeLine: 1416, flags: DIFlagPrototyped, isOptimized: false)
!1274 = !DISubprogram(name: "xor_reduce", linkageName: "_ZNK11ap_int_baseILi18ELb1EE10xor_reduceEv", scope: !709, file: !710, line: 1417, type: !857, isLocal: false, isDefinition: false, scopeLine: 1417, flags: DIFlagPrototyped, isOptimized: false)
!1275 = !DISubprogram(name: "xnor_reduce", linkageName: "_ZNK11ap_int_baseILi18ELb1EE11xnor_reduceEv", scope: !709, file: !710, line: 1418, type: !857, isLocal: false, isDefinition: false, scopeLine: 1418, flags: DIFlagPrototyped, isOptimized: false)
!1276 = !DISubprogram(name: "to_string", linkageName: "_ZNK11ap_int_baseILi18ELb1EE9to_stringEab", scope: !709, file: !710, line: 1433, type: !1277, isLocal: false, isDefinition: false, scopeLine: 1433, flags: DIFlagPrototyped, isOptimized: false)
!1277 = !DISubroutineType(types: !1278)
!1278 = !{!1225, !731, !114, !64}
!1279 = !{!1280, !63}
!1280 = !DITemplateValueParameter(name: "_AP_W", type: !53, value: i32 18)
!1281 = !DISubprogram(name: "ap_int", scope: !706, file: !429, line: 140, type: !1282, isLocal: false, isDefinition: false, scopeLine: 140, flags: DIFlagPrototyped, isOptimized: false)
!1282 = !DISubroutineType(types: !1283)
!1283 = !{null, !1284, !174}
!1284 = !DIDerivedType(tag: DW_TAG_pointer_type, baseType: !706, size: 64, flags: DIFlagArtificial | DIFlagObjectPointer)
!1285 = !DISubprogram(name: "ap_int", scope: !706, file: !429, line: 141, type: !1286, isLocal: false, isDefinition: false, scopeLine: 141, flags: DIFlagPrototyped, isOptimized: false)
!1286 = !DISubroutineType(types: !1287)
!1287 = !{null, !1284, !178}
!1288 = !DISubprogram(name: "ap_int", scope: !706, file: !429, line: 142, type: !1289, isLocal: false, isDefinition: false, scopeLine: 142, flags: DIFlagPrototyped, isOptimized: false)
!1289 = !DISubroutineType(types: !1290)
!1290 = !{null, !1284, !442}
!1291 = !DISubprogram(name: "operator=", linkageName: "_ZN6ap_intILi18EEaSERKS0_", scope: !706, file: !429, line: 152, type: !1292, isLocal: false, isDefinition: false, scopeLine: 152, flags: DIFlagPrototyped, isOptimized: false)
!1292 = !DISubroutineType(types: !1293)
!1293 = !{!1294, !1284, !1295}
!1294 = !DIDerivedType(tag: DW_TAG_reference_type, baseType: !706, size: 64)
!1295 = !DIDerivedType(tag: DW_TAG_reference_type, baseType: !1296, size: 64)
!1296 = !DIDerivedType(tag: DW_TAG_const_type, baseType: !706)
!1297 = !{!1280}
!1298 = !DISubprogram(name: "operator!", linkageName: "_ZNK11ap_int_baseILi17ELb1EEntEv", scope: !471, file: !198, line: 901, type: !612, isLocal: false, isDefinition: false, scopeLine: 901, flags: DIFlagPrototyped, isOptimized: false)
!1299 = !DISubprogram(name: "operator~", linkageName: "_ZNK11ap_int_baseILi17ELb1EEcoEv", scope: !471, file: !198, line: 907, type: !695, isLocal: false, isDefinition: false, scopeLine: 907, flags: DIFlagPrototyped, isOptimized: false)
!1300 = !DISubprogram(name: "range", linkageName: "_ZN11ap_int_baseILi17ELb1EE5rangeEii", scope: !471, file: !198, line: 1045, type: !1301, isLocal: false, isDefinition: false, scopeLine: 1045, flags: DIFlagPrototyped, isOptimized: false)
!1301 = !DISubroutineType(types: !1302)
!1302 = !{!1303, !497, !53, !53}
!1303 = distinct !DICompositeType(tag: DW_TAG_structure_type, name: "ap_range_ref<17, true>", file: !71, line: 143, flags: DIFlagFwdDecl, identifier: "_ZTS12ap_range_refILi17ELb1EE")
!1304 = !DISubprogram(name: "range", linkageName: "_ZNK11ap_int_baseILi17ELb1EE5rangeEii", scope: !471, file: !198, line: 1052, type: !1305, isLocal: false, isDefinition: false, scopeLine: 1052, flags: DIFlagPrototyped, isOptimized: false)
!1305 = !DISubroutineType(types: !1306)
!1306 = !{!1303, !492, !53, !53}
!1307 = !DISubprogram(name: "range", linkageName: "_ZN11ap_int_baseILi17ELb1EE5rangeEv", scope: !471, file: !198, line: 1076, type: !1308, isLocal: false, isDefinition: false, scopeLine: 1076, flags: DIFlagPrototyped, isOptimized: false)
!1308 = !DISubroutineType(types: !1309)
!1309 = !{!1303, !497}
!1310 = !DISubprogram(name: "range", linkageName: "_ZNK11ap_int_baseILi17ELb1EE5rangeEv", scope: !471, file: !198, line: 1080, type: !1311, isLocal: false, isDefinition: false, scopeLine: 1080, flags: DIFlagPrototyped, isOptimized: false)
!1311 = !DISubroutineType(types: !1312)
!1312 = !{!1303, !492}
!1313 = !DISubprogram(name: "operator()", linkageName: "_ZN11ap_int_baseILi17ELb1EEclEii", scope: !471, file: !198, line: 1084, type: !1301, isLocal: false, isDefinition: false, scopeLine: 1084, flags: DIFlagPrototyped, isOptimized: false)
!1314 = !DISubprogram(name: "operator()", linkageName: "_ZNK11ap_int_baseILi17ELb1EEclEii", scope: !471, file: !198, line: 1088, type: !1305, isLocal: false, isDefinition: false, scopeLine: 1088, flags: DIFlagPrototyped, isOptimized: false)
!1315 = !DISubprogram(name: "operator[]", linkageName: "_ZN11ap_int_baseILi17ELb1EEixEi", scope: !471, file: !198, line: 1126, type: !1316, isLocal: false, isDefinition: false, scopeLine: 1126, flags: DIFlagPrototyped, isOptimized: false)
!1316 = !DISubroutineType(types: !1317)
!1317 = !{!1318, !497, !53}
!1318 = distinct !DICompositeType(tag: DW_TAG_structure_type, name: "ap_bit_ref<17, true>", file: !1319, line: 761, size: 128, flags: DIFlagTypePassByReference, elements: !1320, templateParams: !1405, identifier: "_ZTS10ap_bit_refILi17ELb1EE")
!1319 = !DIFile(filename: "/home/ishan/tools/Vitis_HLS/2022.2/common/technology/autopilot/ap_int_ref.h", directory: "/home/ishan/tools/Vitis_HLS/2022.2/bin")
!1320 = !{!1321, !1324, !1325, !1331, !1335, !1340, !1344, !1345, !1349, !1352, !1355, !1358, !1361, !1364, !1367, !1370, !1373, !1376, !1379, !1382, !1385, !1388, !1391, !1394, !1395, !1398, !1399, !1402}
!1321 = !DIDerivedType(tag: DW_TAG_member, name: "d_bv", scope: !1318, file: !1319, line: 766, baseType: !1322, size: 64)
!1322 = !DIDerivedType(tag: DW_TAG_reference_type, baseType: !1323, size: 64)
!1323 = !DIDerivedType(tag: DW_TAG_typedef, name: "ref_type", scope: !1318, file: !1319, line: 765, baseType: !471)
!1324 = !DIDerivedType(tag: DW_TAG_member, name: "d_index", scope: !1318, file: !1319, line: 767, baseType: !53, size: 32, offset: 64)
!1325 = !DISubprogram(name: "ap_bit_ref", scope: !1318, file: !1319, line: 771, type: !1326, isLocal: false, isDefinition: false, scopeLine: 771, flags: DIFlagPrototyped, isOptimized: false)
!1326 = !DISubroutineType(types: !1327)
!1327 = !{null, !1328, !1329}
!1328 = !DIDerivedType(tag: DW_TAG_pointer_type, baseType: !1318, size: 64, flags: DIFlagArtificial | DIFlagObjectPointer)
!1329 = !DIDerivedType(tag: DW_TAG_reference_type, baseType: !1330, size: 64)
!1330 = !DIDerivedType(tag: DW_TAG_const_type, baseType: !1318)
!1331 = !DISubprogram(name: "ap_bit_ref", scope: !1318, file: !1319, line: 774, type: !1332, isLocal: false, isDefinition: false, scopeLine: 774, flags: DIFlagPrototyped, isOptimized: false)
!1332 = !DISubroutineType(types: !1333)
!1333 = !{null, !1328, !1334, !53}
!1334 = !DIDerivedType(tag: DW_TAG_pointer_type, baseType: !1323, size: 64)
!1335 = !DISubprogram(name: "ap_bit_ref", scope: !1318, file: !1319, line: 776, type: !1336, isLocal: false, isDefinition: false, scopeLine: 776, flags: DIFlagPrototyped, isOptimized: false)
!1336 = !DISubroutineType(types: !1337)
!1337 = !{null, !1328, !1338, !53}
!1338 = !DIDerivedType(tag: DW_TAG_pointer_type, baseType: !1339, size: 64)
!1339 = !DIDerivedType(tag: DW_TAG_const_type, baseType: !1323)
!1340 = !DISubprogram(name: "operator bool", linkageName: "_ZNK10ap_bit_refILi17ELb1EEcvbEv", scope: !1318, file: !1319, line: 779, type: !1341, isLocal: false, isDefinition: false, scopeLine: 779, flags: DIFlagPrototyped, isOptimized: false)
!1341 = !DISubroutineType(types: !1342)
!1342 = !{!64, !1343}
!1343 = !DIDerivedType(tag: DW_TAG_pointer_type, baseType: !1330, size: 64, flags: DIFlagArtificial | DIFlagObjectPointer)
!1344 = !DISubprogram(name: "to_bool", linkageName: "_ZNK10ap_bit_refILi17ELb1EE7to_boolEv", scope: !1318, file: !1319, line: 780, type: !1341, isLocal: false, isDefinition: false, scopeLine: 780, flags: DIFlagPrototyped, isOptimized: false)
!1345 = !DISubprogram(name: "operator=", linkageName: "_ZN10ap_bit_refILi17ELb1EEaSEb", scope: !1318, file: !1319, line: 798, type: !1346, isLocal: false, isDefinition: false, scopeLine: 798, flags: DIFlagPrototyped, isOptimized: false)
!1346 = !DISubroutineType(types: !1347)
!1347 = !{!1348, !1328, !64}
!1348 = !DIDerivedType(tag: DW_TAG_reference_type, baseType: !1318, size: 64)
!1349 = !DISubprogram(name: "operator=", linkageName: "_ZN10ap_bit_refILi17ELb1EEaSEc", scope: !1318, file: !1319, line: 799, type: !1350, isLocal: false, isDefinition: false, scopeLine: 799, flags: DIFlagPrototyped, isOptimized: false)
!1350 = !DISubroutineType(types: !1351)
!1351 = !{!1348, !1328, !110}
!1352 = !DISubprogram(name: "operator=", linkageName: "_ZN10ap_bit_refILi17ELb1EEaSEa", scope: !1318, file: !1319, line: 800, type: !1353, isLocal: false, isDefinition: false, scopeLine: 800, flags: DIFlagPrototyped, isOptimized: false)
!1353 = !DISubroutineType(types: !1354)
!1354 = !{!1348, !1328, !114}
!1355 = !DISubprogram(name: "operator=", linkageName: "_ZN10ap_bit_refILi17ELb1EEaSEh", scope: !1318, file: !1319, line: 801, type: !1356, isLocal: false, isDefinition: false, scopeLine: 801, flags: DIFlagPrototyped, isOptimized: false)
!1356 = !DISubroutineType(types: !1357)
!1357 = !{!1348, !1328, !130}
!1358 = !DISubprogram(name: "operator=", linkageName: "_ZN10ap_bit_refILi17ELb1EEaSEs", scope: !1318, file: !1319, line: 802, type: !1359, isLocal: false, isDefinition: false, scopeLine: 802, flags: DIFlagPrototyped, isOptimized: false)
!1359 = !DISubroutineType(types: !1360)
!1360 = !{!1348, !1328, !135}
!1361 = !DISubprogram(name: "operator=", linkageName: "_ZN10ap_bit_refILi17ELb1EEaSEt", scope: !1318, file: !1319, line: 803, type: !1362, isLocal: false, isDefinition: false, scopeLine: 803, flags: DIFlagPrototyped, isOptimized: false)
!1362 = !DISubroutineType(types: !1363)
!1363 = !{!1348, !1328, !140}
!1364 = !DISubprogram(name: "operator=", linkageName: "_ZN10ap_bit_refILi17ELb1EEaSEi", scope: !1318, file: !1319, line: 804, type: !1365, isLocal: false, isDefinition: false, scopeLine: 804, flags: DIFlagPrototyped, isOptimized: false)
!1365 = !DISubroutineType(types: !1366)
!1366 = !{!1348, !1328, !53}
!1367 = !DISubprogram(name: "operator=", linkageName: "_ZN10ap_bit_refILi17ELb1EEaSEj", scope: !1318, file: !1319, line: 805, type: !1368, isLocal: false, isDefinition: false, scopeLine: 805, flags: DIFlagPrototyped, isOptimized: false)
!1368 = !DISubroutineType(types: !1369)
!1369 = !{!1348, !1328, !148}
!1370 = !DISubprogram(name: "operator=", linkageName: "_ZN10ap_bit_refILi17ELb1EEaSEl", scope: !1318, file: !1319, line: 806, type: !1371, isLocal: false, isDefinition: false, scopeLine: 806, flags: DIFlagPrototyped, isOptimized: false)
!1371 = !DISubroutineType(types: !1372)
!1372 = !{!1348, !1328, !153}
!1373 = !DISubprogram(name: "operator=", linkageName: "_ZN10ap_bit_refILi17ELb1EEaSEm", scope: !1318, file: !1319, line: 807, type: !1374, isLocal: false, isDefinition: false, scopeLine: 807, flags: DIFlagPrototyped, isOptimized: false)
!1374 = !DISubroutineType(types: !1375)
!1375 = !{!1348, !1328, !158}
!1376 = !DISubprogram(name: "operator=", linkageName: "_ZN10ap_bit_refILi17ELb1EEaSEx", scope: !1318, file: !1319, line: 808, type: !1377, isLocal: false, isDefinition: false, scopeLine: 808, flags: DIFlagPrototyped, isOptimized: false)
!1377 = !DISubroutineType(types: !1378)
!1378 = !{!1348, !1328, !163}
!1379 = !DISubprogram(name: "operator=", linkageName: "_ZN10ap_bit_refILi17ELb1EEaSEy", scope: !1318, file: !1319, line: 809, type: !1380, isLocal: false, isDefinition: false, scopeLine: 809, flags: DIFlagPrototyped, isOptimized: false)
!1380 = !DISubroutineType(types: !1381)
!1381 = !{!1348, !1328, !169}
!1382 = !DISubprogram(name: "operator=", linkageName: "_ZN10ap_bit_refILi17ELb1EEaSEDh", scope: !1318, file: !1319, line: 820, type: !1383, isLocal: false, isDefinition: false, scopeLine: 820, flags: DIFlagPrototyped, isOptimized: false)
!1383 = !DISubroutineType(types: !1384)
!1384 = !{!1348, !1328, !182}
!1385 = !DISubprogram(name: "operator=", linkageName: "_ZN10ap_bit_refILi17ELb1EEaSEf", scope: !1318, file: !1319, line: 821, type: !1386, isLocal: false, isDefinition: false, scopeLine: 821, flags: DIFlagPrototyped, isOptimized: false)
!1386 = !DISubroutineType(types: !1387)
!1387 = !{!1348, !1328, !178}
!1388 = !DISubprogram(name: "operator=", linkageName: "_ZN10ap_bit_refILi17ELb1EEaSEd", scope: !1318, file: !1319, line: 822, type: !1389, isLocal: false, isDefinition: false, scopeLine: 822, flags: DIFlagPrototyped, isOptimized: false)
!1389 = !DISubroutineType(types: !1390)
!1390 = !{!1348, !1328, !174}
!1391 = !DISubprogram(name: "operator=", linkageName: "_ZN10ap_bit_refILi17ELb1EEaSERKS0_", scope: !1318, file: !1319, line: 839, type: !1392, isLocal: false, isDefinition: false, scopeLine: 839, flags: DIFlagPrototyped, isOptimized: false)
!1392 = !DISubroutineType(types: !1393)
!1393 = !{!1348, !1328, !1329}
!1394 = !DISubprogram(name: "get", linkageName: "_ZNK10ap_bit_refILi17ELb1EE3getEv", scope: !1318, file: !1319, line: 959, type: !1341, isLocal: false, isDefinition: false, scopeLine: 959, flags: DIFlagPrototyped, isOptimized: false)
!1395 = !DISubprogram(name: "get", linkageName: "_ZN10ap_bit_refILi17ELb1EE3getEv", scope: !1318, file: !1319, line: 961, type: !1396, isLocal: false, isDefinition: false, scopeLine: 961, flags: DIFlagPrototyped, isOptimized: false)
!1396 = !DISubroutineType(types: !1397)
!1397 = !{!64, !1328}
!1398 = !DISubprogram(name: "operator~", linkageName: "_ZNK10ap_bit_refILi17ELb1EEcoEv", scope: !1318, file: !1319, line: 968, type: !1341, isLocal: false, isDefinition: false, scopeLine: 968, flags: DIFlagPrototyped, isOptimized: false)
!1399 = !DISubprogram(name: "length", linkageName: "_ZNK10ap_bit_refILi17ELb1EE6lengthEv", scope: !1318, file: !1319, line: 973, type: !1400, isLocal: false, isDefinition: false, scopeLine: 973, flags: DIFlagPrototyped, isOptimized: false)
!1400 = !DISubroutineType(types: !1401)
!1401 = !{!53, !1343}
!1402 = !DISubprogram(name: "to_string", linkageName: "_ZNK10ap_bit_refILi17ELb1EE9to_stringEv", scope: !1318, file: !1319, line: 979, type: !1403, isLocal: false, isDefinition: false, scopeLine: 979, flags: DIFlagPrototyped, isOptimized: false)
!1403 = !DISubroutineType(types: !1404)
!1404 = !{!1225, !1343}
!1405 = !{!1406, !63}
!1406 = !DITemplateValueParameter(name: "_AP_W", type: !53, value: i32 17)
!1407 = !DISubprogram(name: "operator[]", linkageName: "_ZNK11ap_int_baseILi17ELb1EEixEi", scope: !471, file: !198, line: 1142, type: !667, isLocal: false, isDefinition: false, scopeLine: 1142, flags: DIFlagPrototyped, isOptimized: false)
!1408 = !DISubprogram(name: "bit", linkageName: "_ZN11ap_int_baseILi17ELb1EE3bitEi", scope: !471, file: !198, line: 1155, type: !1316, isLocal: false, isDefinition: false, scopeLine: 1155, flags: DIFlagPrototyped, isOptimized: false)
!1409 = !DISubprogram(name: "bit", linkageName: "_ZNK11ap_int_baseILi17ELb1EE3bitEi", scope: !471, file: !198, line: 1170, type: !667, isLocal: false, isDefinition: false, scopeLine: 1170, flags: DIFlagPrototyped, isOptimized: false)
!1410 = !DISubprogram(name: "countLeadingZeros", linkageName: "_ZNK11ap_int_baseILi17ELb1EE17countLeadingZerosEv", scope: !471, file: !198, line: 1193, type: !490, isLocal: false, isDefinition: false, scopeLine: 1193, flags: DIFlagPrototyped, isOptimized: false)
!1411 = !DISubprogram(name: "and_reduce", linkageName: "_ZNK11ap_int_baseILi17ELb1EE10and_reduceEv", scope: !471, file: !198, line: 1413, type: !612, isLocal: false, isDefinition: false, scopeLine: 1413, flags: DIFlagPrototyped, isOptimized: false)
!1412 = !DISubprogram(name: "nand_reduce", linkageName: "_ZNK11ap_int_baseILi17ELb1EE11nand_reduceEv", scope: !471, file: !198, line: 1414, type: !612, isLocal: false, isDefinition: false, scopeLine: 1414, flags: DIFlagPrototyped, isOptimized: false)
!1413 = !DISubprogram(name: "or_reduce", linkageName: "_ZNK11ap_int_baseILi17ELb1EE9or_reduceEv", scope: !471, file: !198, line: 1415, type: !612, isLocal: false, isDefinition: false, scopeLine: 1415, flags: DIFlagPrototyped, isOptimized: false)
!1414 = !DISubprogram(name: "nor_reduce", linkageName: "_ZNK11ap_int_baseILi17ELb1EE10nor_reduceEv", scope: !471, file: !198, line: 1416, type: !612, isLocal: false, isDefinition: false, scopeLine: 1416, flags: DIFlagPrototyped, isOptimized: false)
!1415 = !DISubprogram(name: "xor_reduce", linkageName: "_ZNK11ap_int_baseILi17ELb1EE10xor_reduceEv", scope: !471, file: !198, line: 1417, type: !612, isLocal: false, isDefinition: false, scopeLine: 1417, flags: DIFlagPrototyped, isOptimized: false)
!1416 = !DISubprogram(name: "xnor_reduce", linkageName: "_ZNK11ap_int_baseILi17ELb1EE11xnor_reduceEv", scope: !471, file: !198, line: 1418, type: !612, isLocal: false, isDefinition: false, scopeLine: 1418, flags: DIFlagPrototyped, isOptimized: false)
!1417 = !DISubprogram(name: "to_string", linkageName: "_ZNK11ap_int_baseILi17ELb1EE9to_stringEab", scope: !471, file: !198, line: 1433, type: !1418, isLocal: false, isDefinition: false, scopeLine: 1433, flags: DIFlagPrototyped, isOptimized: false)
!1418 = !DISubroutineType(types: !1419)
!1419 = !{!1225, !492, !114, !64}
!1420 = !DISubprogram(name: "ap_int", scope: !468, file: !429, line: 140, type: !1421, isLocal: false, isDefinition: false, scopeLine: 140, flags: DIFlagPrototyped, isOptimized: false)
!1421 = !DISubroutineType(types: !1422)
!1422 = !{null, !1423, !174}
!1423 = !DIDerivedType(tag: DW_TAG_pointer_type, baseType: !468, size: 64, flags: DIFlagArtificial | DIFlagObjectPointer)
!1424 = !DISubprogram(name: "ap_int", scope: !468, file: !429, line: 141, type: !1425, isLocal: false, isDefinition: false, scopeLine: 141, flags: DIFlagPrototyped, isOptimized: false)
!1425 = !DISubroutineType(types: !1426)
!1426 = !{null, !1423, !178}
!1427 = !DISubprogram(name: "ap_int", scope: !468, file: !429, line: 142, type: !1428, isLocal: false, isDefinition: false, scopeLine: 142, flags: DIFlagPrototyped, isOptimized: false)
!1428 = !DISubroutineType(types: !1429)
!1429 = !{null, !1423, !442}
!1430 = !DISubprogram(name: "operator=", linkageName: "_ZN6ap_intILi17EEaSERKS0_", scope: !468, file: !429, line: 152, type: !1431, isLocal: false, isDefinition: false, scopeLine: 152, flags: DIFlagPrototyped, isOptimized: false)
!1431 = !DISubroutineType(types: !1432)
!1432 = !{!1433, !1423, !1434}
!1433 = !DIDerivedType(tag: DW_TAG_reference_type, baseType: !468, size: 64)
!1434 = !DIDerivedType(tag: DW_TAG_reference_type, baseType: !1435, size: 64)
!1435 = !DIDerivedType(tag: DW_TAG_const_type, baseType: !468)
!1436 = !{!1406}
!1437 = !DISubprogram(name: "operator!", linkageName: "_ZNK11ap_int_baseILi16ELb1EEntEv", scope: !197, file: !198, line: 901, type: !342, isLocal: false, isDefinition: false, scopeLine: 901, flags: DIFlagPrototyped, isOptimized: false)
!1438 = !DISubprogram(name: "operator~", linkageName: "_ZNK11ap_int_baseILi16ELb1EEcoEv", scope: !197, file: !198, line: 907, type: !454, isLocal: false, isDefinition: false, scopeLine: 907, flags: DIFlagPrototyped, isOptimized: false)
!1439 = !DISubprogram(name: "range", linkageName: "_ZN11ap_int_baseILi16ELb1EE5rangeEii", scope: !197, file: !198, line: 1045, type: !1440, isLocal: false, isDefinition: false, scopeLine: 1045, flags: DIFlagPrototyped, isOptimized: false)
!1440 = !DISubroutineType(types: !1441)
!1441 = !{!1442, !223, !53, !53}
!1442 = distinct !DICompositeType(tag: DW_TAG_structure_type, name: "ap_range_ref<16, true>", file: !71, line: 143, flags: DIFlagFwdDecl, identifier: "_ZTS12ap_range_refILi16ELb1EE")
!1443 = !DISubprogram(name: "range", linkageName: "_ZNK11ap_int_baseILi16ELb1EE5rangeEii", scope: !197, file: !198, line: 1052, type: !1444, isLocal: false, isDefinition: false, scopeLine: 1052, flags: DIFlagPrototyped, isOptimized: false)
!1444 = !DISubroutineType(types: !1445)
!1445 = !{!1442, !218, !53, !53}
!1446 = !DISubprogram(name: "range", linkageName: "_ZN11ap_int_baseILi16ELb1EE5rangeEv", scope: !197, file: !198, line: 1076, type: !1447, isLocal: false, isDefinition: false, scopeLine: 1076, flags: DIFlagPrototyped, isOptimized: false)
!1447 = !DISubroutineType(types: !1448)
!1448 = !{!1442, !223}
!1449 = !DISubprogram(name: "range", linkageName: "_ZNK11ap_int_baseILi16ELb1EE5rangeEv", scope: !197, file: !198, line: 1080, type: !1450, isLocal: false, isDefinition: false, scopeLine: 1080, flags: DIFlagPrototyped, isOptimized: false)
!1450 = !DISubroutineType(types: !1451)
!1451 = !{!1442, !218}
!1452 = !DISubprogram(name: "operator()", linkageName: "_ZN11ap_int_baseILi16ELb1EEclEii", scope: !197, file: !198, line: 1084, type: !1440, isLocal: false, isDefinition: false, scopeLine: 1084, flags: DIFlagPrototyped, isOptimized: false)
!1453 = !DISubprogram(name: "operator()", linkageName: "_ZNK11ap_int_baseILi16ELb1EEclEii", scope: !197, file: !198, line: 1088, type: !1444, isLocal: false, isDefinition: false, scopeLine: 1088, flags: DIFlagPrototyped, isOptimized: false)
!1454 = !DISubprogram(name: "operator[]", linkageName: "_ZN11ap_int_baseILi16ELb1EEixEi", scope: !197, file: !198, line: 1126, type: !1455, isLocal: false, isDefinition: false, scopeLine: 1126, flags: DIFlagPrototyped, isOptimized: false)
!1455 = !DISubroutineType(types: !1456)
!1456 = !{!1457, !223, !53}
!1457 = distinct !DICompositeType(tag: DW_TAG_structure_type, name: "ap_bit_ref<16, true>", file: !1458, line: 761, size: 128, flags: DIFlagTypePassByReference, elements: !1459, templateParams: !1544, identifier: "_ZTS10ap_bit_refILi16ELb1EE")
!1458 = !DIFile(filename: "/wrk/ci/prod/2022.2/hls_product/continuous/608/2022.2/src/shared/hls/clib/include/header_files/ap_int_ref.h", directory: "/wrk/ci/prod/2022.2/hls_product/continuous/608/2022.2/src/shared/hls/clib/hlsmath")
!1459 = !{!1460, !1463, !1464, !1470, !1474, !1479, !1483, !1484, !1488, !1491, !1494, !1497, !1500, !1503, !1506, !1509, !1512, !1515, !1518, !1521, !1524, !1527, !1530, !1533, !1534, !1537, !1538, !1541}
!1460 = !DIDerivedType(tag: DW_TAG_member, name: "d_bv", scope: !1457, file: !1458, line: 766, baseType: !1461, size: 64)
!1461 = !DIDerivedType(tag: DW_TAG_reference_type, baseType: !1462, size: 64)
!1462 = !DIDerivedType(tag: DW_TAG_typedef, name: "ref_type", scope: !1457, file: !1458, line: 765, baseType: !197)
!1463 = !DIDerivedType(tag: DW_TAG_member, name: "d_index", scope: !1457, file: !1458, line: 767, baseType: !53, size: 32, offset: 64)
!1464 = !DISubprogram(name: "ap_bit_ref", scope: !1457, file: !1458, line: 771, type: !1465, isLocal: false, isDefinition: false, scopeLine: 771, flags: DIFlagPrototyped, isOptimized: false)
!1465 = !DISubroutineType(types: !1466)
!1466 = !{null, !1467, !1468}
!1467 = !DIDerivedType(tag: DW_TAG_pointer_type, baseType: !1457, size: 64, flags: DIFlagArtificial | DIFlagObjectPointer)
!1468 = !DIDerivedType(tag: DW_TAG_reference_type, baseType: !1469, size: 64)
!1469 = !DIDerivedType(tag: DW_TAG_const_type, baseType: !1457)
!1470 = !DISubprogram(name: "ap_bit_ref", scope: !1457, file: !1458, line: 774, type: !1471, isLocal: false, isDefinition: false, scopeLine: 774, flags: DIFlagPrototyped, isOptimized: false)
!1471 = !DISubroutineType(types: !1472)
!1472 = !{null, !1467, !1473, !53}
!1473 = !DIDerivedType(tag: DW_TAG_pointer_type, baseType: !1462, size: 64)
!1474 = !DISubprogram(name: "ap_bit_ref", scope: !1457, file: !1458, line: 776, type: !1475, isLocal: false, isDefinition: false, scopeLine: 776, flags: DIFlagPrototyped, isOptimized: false)
!1475 = !DISubroutineType(types: !1476)
!1476 = !{null, !1467, !1477, !53}
!1477 = !DIDerivedType(tag: DW_TAG_pointer_type, baseType: !1478, size: 64)
!1478 = !DIDerivedType(tag: DW_TAG_const_type, baseType: !1462)
!1479 = !DISubprogram(name: "operator bool", linkageName: "_ZNK10ap_bit_refILi16ELb1EEcvbEv", scope: !1457, file: !1458, line: 779, type: !1480, isLocal: false, isDefinition: false, scopeLine: 779, flags: DIFlagPrototyped, isOptimized: false)
!1480 = !DISubroutineType(types: !1481)
!1481 = !{!64, !1482}
!1482 = !DIDerivedType(tag: DW_TAG_pointer_type, baseType: !1469, size: 64, flags: DIFlagArtificial | DIFlagObjectPointer)
!1483 = !DISubprogram(name: "to_bool", linkageName: "_ZNK10ap_bit_refILi16ELb1EE7to_boolEv", scope: !1457, file: !1458, line: 780, type: !1480, isLocal: false, isDefinition: false, scopeLine: 780, flags: DIFlagPrototyped, isOptimized: false)
!1484 = !DISubprogram(name: "operator=", linkageName: "_ZN10ap_bit_refILi16ELb1EEaSEb", scope: !1457, file: !1458, line: 798, type: !1485, isLocal: false, isDefinition: false, scopeLine: 798, flags: DIFlagPrototyped, isOptimized: false)
!1485 = !DISubroutineType(types: !1486)
!1486 = !{!1487, !1467, !64}
!1487 = !DIDerivedType(tag: DW_TAG_reference_type, baseType: !1457, size: 64)
!1488 = !DISubprogram(name: "operator=", linkageName: "_ZN10ap_bit_refILi16ELb1EEaSEc", scope: !1457, file: !1458, line: 799, type: !1489, isLocal: false, isDefinition: false, scopeLine: 799, flags: DIFlagPrototyped, isOptimized: false)
!1489 = !DISubroutineType(types: !1490)
!1490 = !{!1487, !1467, !110}
!1491 = !DISubprogram(name: "operator=", linkageName: "_ZN10ap_bit_refILi16ELb1EEaSEa", scope: !1457, file: !1458, line: 800, type: !1492, isLocal: false, isDefinition: false, scopeLine: 800, flags: DIFlagPrototyped, isOptimized: false)
!1492 = !DISubroutineType(types: !1493)
!1493 = !{!1487, !1467, !114}
!1494 = !DISubprogram(name: "operator=", linkageName: "_ZN10ap_bit_refILi16ELb1EEaSEh", scope: !1457, file: !1458, line: 801, type: !1495, isLocal: false, isDefinition: false, scopeLine: 801, flags: DIFlagPrototyped, isOptimized: false)
!1495 = !DISubroutineType(types: !1496)
!1496 = !{!1487, !1467, !130}
!1497 = !DISubprogram(name: "operator=", linkageName: "_ZN10ap_bit_refILi16ELb1EEaSEs", scope: !1457, file: !1458, line: 802, type: !1498, isLocal: false, isDefinition: false, scopeLine: 802, flags: DIFlagPrototyped, isOptimized: false)
!1498 = !DISubroutineType(types: !1499)
!1499 = !{!1487, !1467, !135}
!1500 = !DISubprogram(name: "operator=", linkageName: "_ZN10ap_bit_refILi16ELb1EEaSEt", scope: !1457, file: !1458, line: 803, type: !1501, isLocal: false, isDefinition: false, scopeLine: 803, flags: DIFlagPrototyped, isOptimized: false)
!1501 = !DISubroutineType(types: !1502)
!1502 = !{!1487, !1467, !140}
!1503 = !DISubprogram(name: "operator=", linkageName: "_ZN10ap_bit_refILi16ELb1EEaSEi", scope: !1457, file: !1458, line: 804, type: !1504, isLocal: false, isDefinition: false, scopeLine: 804, flags: DIFlagPrototyped, isOptimized: false)
!1504 = !DISubroutineType(types: !1505)
!1505 = !{!1487, !1467, !53}
!1506 = !DISubprogram(name: "operator=", linkageName: "_ZN10ap_bit_refILi16ELb1EEaSEj", scope: !1457, file: !1458, line: 805, type: !1507, isLocal: false, isDefinition: false, scopeLine: 805, flags: DIFlagPrototyped, isOptimized: false)
!1507 = !DISubroutineType(types: !1508)
!1508 = !{!1487, !1467, !148}
!1509 = !DISubprogram(name: "operator=", linkageName: "_ZN10ap_bit_refILi16ELb1EEaSEl", scope: !1457, file: !1458, line: 806, type: !1510, isLocal: false, isDefinition: false, scopeLine: 806, flags: DIFlagPrototyped, isOptimized: false)
!1510 = !DISubroutineType(types: !1511)
!1511 = !{!1487, !1467, !153}
!1512 = !DISubprogram(name: "operator=", linkageName: "_ZN10ap_bit_refILi16ELb1EEaSEm", scope: !1457, file: !1458, line: 807, type: !1513, isLocal: false, isDefinition: false, scopeLine: 807, flags: DIFlagPrototyped, isOptimized: false)
!1513 = !DISubroutineType(types: !1514)
!1514 = !{!1487, !1467, !158}
!1515 = !DISubprogram(name: "operator=", linkageName: "_ZN10ap_bit_refILi16ELb1EEaSEx", scope: !1457, file: !1458, line: 808, type: !1516, isLocal: false, isDefinition: false, scopeLine: 808, flags: DIFlagPrototyped, isOptimized: false)
!1516 = !DISubroutineType(types: !1517)
!1517 = !{!1487, !1467, !771}
!1518 = !DISubprogram(name: "operator=", linkageName: "_ZN10ap_bit_refILi16ELb1EEaSEy", scope: !1457, file: !1458, line: 809, type: !1519, isLocal: false, isDefinition: false, scopeLine: 809, flags: DIFlagPrototyped, isOptimized: false)
!1519 = !DISubroutineType(types: !1520)
!1520 = !{!1487, !1467, !777}
!1521 = !DISubprogram(name: "operator=", linkageName: "_ZN10ap_bit_refILi16ELb1EEaSEDh", scope: !1457, file: !1458, line: 820, type: !1522, isLocal: false, isDefinition: false, scopeLine: 820, flags: DIFlagPrototyped, isOptimized: false)
!1522 = !DISubroutineType(types: !1523)
!1523 = !{!1487, !1467, !442}
!1524 = !DISubprogram(name: "operator=", linkageName: "_ZN10ap_bit_refILi16ELb1EEaSEf", scope: !1457, file: !1458, line: 821, type: !1525, isLocal: false, isDefinition: false, scopeLine: 821, flags: DIFlagPrototyped, isOptimized: false)
!1525 = !DISubroutineType(types: !1526)
!1526 = !{!1487, !1467, !178}
!1527 = !DISubprogram(name: "operator=", linkageName: "_ZN10ap_bit_refILi16ELb1EEaSEd", scope: !1457, file: !1458, line: 822, type: !1528, isLocal: false, isDefinition: false, scopeLine: 822, flags: DIFlagPrototyped, isOptimized: false)
!1528 = !DISubroutineType(types: !1529)
!1529 = !{!1487, !1467, !174}
!1530 = !DISubprogram(name: "operator=", linkageName: "_ZN10ap_bit_refILi16ELb1EEaSERKS0_", scope: !1457, file: !1458, line: 839, type: !1531, isLocal: false, isDefinition: false, scopeLine: 839, flags: DIFlagPrototyped, isOptimized: false)
!1531 = !DISubroutineType(types: !1532)
!1532 = !{!1487, !1467, !1468}
!1533 = !DISubprogram(name: "get", linkageName: "_ZNK10ap_bit_refILi16ELb1EE3getEv", scope: !1457, file: !1458, line: 959, type: !1480, isLocal: false, isDefinition: false, scopeLine: 959, flags: DIFlagPrototyped, isOptimized: false)
!1534 = !DISubprogram(name: "get", linkageName: "_ZN10ap_bit_refILi16ELb1EE3getEv", scope: !1457, file: !1458, line: 961, type: !1535, isLocal: false, isDefinition: false, scopeLine: 961, flags: DIFlagPrototyped, isOptimized: false)
!1535 = !DISubroutineType(types: !1536)
!1536 = !{!64, !1467}
!1537 = !DISubprogram(name: "operator~", linkageName: "_ZNK10ap_bit_refILi16ELb1EEcoEv", scope: !1457, file: !1458, line: 968, type: !1480, isLocal: false, isDefinition: false, scopeLine: 968, flags: DIFlagPrototyped, isOptimized: false)
!1538 = !DISubprogram(name: "length", linkageName: "_ZNK10ap_bit_refILi16ELb1EE6lengthEv", scope: !1457, file: !1458, line: 973, type: !1539, isLocal: false, isDefinition: false, scopeLine: 973, flags: DIFlagPrototyped, isOptimized: false)
!1539 = !DISubroutineType(types: !1540)
!1540 = !{!53, !1482}
!1541 = !DISubprogram(name: "to_string", linkageName: "_ZNK10ap_bit_refILi16ELb1EE9to_stringEv", scope: !1457, file: !1458, line: 979, type: !1542, isLocal: false, isDefinition: false, scopeLine: 979, flags: DIFlagPrototyped, isOptimized: false)
!1542 = !DISubroutineType(types: !1543)
!1543 = !{!1225, !1482}
!1544 = !{!451, !63}
!1545 = !DISubprogram(name: "operator[]", linkageName: "_ZNK11ap_int_baseILi16ELb1EEixEi", scope: !197, file: !198, line: 1142, type: !397, isLocal: false, isDefinition: false, scopeLine: 1142, flags: DIFlagPrototyped, isOptimized: false)
!1546 = !DISubprogram(name: "bit", linkageName: "_ZN11ap_int_baseILi16ELb1EE3bitEi", scope: !197, file: !198, line: 1155, type: !1455, isLocal: false, isDefinition: false, scopeLine: 1155, flags: DIFlagPrototyped, isOptimized: false)
!1547 = !DISubprogram(name: "bit", linkageName: "_ZNK11ap_int_baseILi16ELb1EE3bitEi", scope: !197, file: !198, line: 1170, type: !397, isLocal: false, isDefinition: false, scopeLine: 1170, flags: DIFlagPrototyped, isOptimized: false)
!1548 = !DISubprogram(name: "countLeadingZeros", linkageName: "_ZNK11ap_int_baseILi16ELb1EE17countLeadingZerosEv", scope: !197, file: !198, line: 1193, type: !216, isLocal: false, isDefinition: false, scopeLine: 1193, flags: DIFlagPrototyped, isOptimized: false)
!1549 = !DISubprogram(name: "and_reduce", linkageName: "_ZNK11ap_int_baseILi16ELb1EE10and_reduceEv", scope: !197, file: !198, line: 1413, type: !342, isLocal: false, isDefinition: false, scopeLine: 1413, flags: DIFlagPrototyped, isOptimized: false)
!1550 = !DISubprogram(name: "nand_reduce", linkageName: "_ZNK11ap_int_baseILi16ELb1EE11nand_reduceEv", scope: !197, file: !198, line: 1414, type: !342, isLocal: false, isDefinition: false, scopeLine: 1414, flags: DIFlagPrototyped, isOptimized: false)
!1551 = !DISubprogram(name: "or_reduce", linkageName: "_ZNK11ap_int_baseILi16ELb1EE9or_reduceEv", scope: !197, file: !198, line: 1415, type: !342, isLocal: false, isDefinition: false, scopeLine: 1415, flags: DIFlagPrototyped, isOptimized: false)
!1552 = !DISubprogram(name: "nor_reduce", linkageName: "_ZNK11ap_int_baseILi16ELb1EE10nor_reduceEv", scope: !197, file: !198, line: 1416, type: !342, isLocal: false, isDefinition: false, scopeLine: 1416, flags: DIFlagPrototyped, isOptimized: false)
!1553 = !DISubprogram(name: "xor_reduce", linkageName: "_ZNK11ap_int_baseILi16ELb1EE10xor_reduceEv", scope: !197, file: !198, line: 1417, type: !342, isLocal: false, isDefinition: false, scopeLine: 1417, flags: DIFlagPrototyped, isOptimized: false)
!1554 = !DISubprogram(name: "xnor_reduce", linkageName: "_ZNK11ap_int_baseILi16ELb1EE11xnor_reduceEv", scope: !197, file: !198, line: 1418, type: !342, isLocal: false, isDefinition: false, scopeLine: 1418, flags: DIFlagPrototyped, isOptimized: false)
!1555 = !DISubprogram(name: "to_string", linkageName: "_ZNK11ap_int_baseILi16ELb1EE9to_stringEab", scope: !197, file: !198, line: 1433, type: !1556, isLocal: false, isDefinition: false, scopeLine: 1433, flags: DIFlagPrototyped, isOptimized: false)
!1556 = !DISubroutineType(types: !1557)
!1557 = !{!1225, !218, !114, !64}
!1558 = !DISubprogram(name: "to_char", linkageName: "_ZNK13ap_fixed_baseILi32ELi16ELb1EL9ap_q_mode5EL9ap_o_mode3ELi0EE7to_charEv", scope: !45, file: !46, line: 1020, type: !1559, isLocal: false, isDefinition: false, scopeLine: 1020, flags: DIFlagPrototyped, isOptimized: false)
!1559 = !DISubroutineType(types: !1560)
!1560 = !{!110, !102}
!1561 = !DISubprogram(name: "to_int", linkageName: "_ZNK13ap_fixed_baseILi32ELi16ELb1EL9ap_q_mode5EL9ap_o_mode3ELi0EE6to_intEv", scope: !45, file: !46, line: 1022, type: !100, isLocal: false, isDefinition: false, scopeLine: 1022, flags: DIFlagPrototyped, isOptimized: false)
!1562 = !DISubprogram(name: "to_uint", linkageName: "_ZNK13ap_fixed_baseILi32ELi16ELb1EL9ap_q_mode5EL9ap_o_mode3ELi0EE7to_uintEv", scope: !45, file: !46, line: 1024, type: !1563, isLocal: false, isDefinition: false, scopeLine: 1024, flags: DIFlagPrototyped, isOptimized: false)
!1563 = !DISubroutineType(types: !1564)
!1564 = !{!148, !102}
!1565 = !DISubprogram(name: "to_int64", linkageName: "_ZNK13ap_fixed_baseILi32ELi16ELb1EL9ap_q_mode5EL9ap_o_mode3ELi0EE8to_int64Ev", scope: !45, file: !46, line: 1026, type: !1566, isLocal: false, isDefinition: false, scopeLine: 1026, flags: DIFlagPrototyped, isOptimized: false)
!1566 = !DISubroutineType(types: !1567)
!1567 = !{!163, !102}
!1568 = !DISubprogram(name: "to_uint64", linkageName: "_ZNK13ap_fixed_baseILi32ELi16ELb1EL9ap_q_mode5EL9ap_o_mode3ELi0EE9to_uint64Ev", scope: !45, file: !46, line: 1028, type: !1569, isLocal: false, isDefinition: false, scopeLine: 1028, flags: DIFlagPrototyped, isOptimized: false)
!1569 = !DISubroutineType(types: !1570)
!1570 = !{!169, !102}
!1571 = !DISubprogram(name: "to_ap_int", linkageName: "_ZNK13ap_fixed_baseILi32ELi16ELb1EL9ap_q_mode5EL9ap_o_mode3ELi0EE9to_ap_intEv", scope: !45, file: !46, line: 1030, type: !1572, isLocal: false, isDefinition: false, scopeLine: 1030, flags: DIFlagPrototyped, isOptimized: false)
!1572 = !DISubroutineType(types: !1573)
!1573 = !{!428, !102}
!1574 = !DISubprogram(name: "to_double", linkageName: "_ZNK13ap_fixed_baseILi32ELi16ELb1EL9ap_q_mode5EL9ap_o_mode3ELi0EE9to_doubleEv", scope: !45, file: !46, line: 1034, type: !1575, isLocal: false, isDefinition: false, scopeLine: 1034, flags: DIFlagPrototyped, isOptimized: false)
!1575 = !DISubroutineType(types: !1576)
!1576 = !{!174, !102}
!1577 = !DISubprogram(name: "to_float", linkageName: "_ZNK13ap_fixed_baseILi32ELi16ELb1EL9ap_q_mode5EL9ap_o_mode3ELi0EE8to_floatEv", scope: !45, file: !46, line: 1084, type: !1578, isLocal: false, isDefinition: false, scopeLine: 1084, flags: DIFlagPrototyped, isOptimized: false)
!1578 = !DISubroutineType(types: !1579)
!1579 = !{!178, !102}
!1580 = !DISubprogram(name: "to_half", linkageName: "_ZNK13ap_fixed_baseILi32ELi16ELb1EL9ap_q_mode5EL9ap_o_mode3ELi0EE7to_halfEv", scope: !45, file: !46, line: 1131, type: !1581, isLocal: false, isDefinition: false, scopeLine: 1131, flags: DIFlagPrototyped, isOptimized: false)
!1581 = !DISubroutineType(types: !1582)
!1582 = !{!182, !102}
!1583 = !DISubprogram(name: "operator long double", linkageName: "_ZNK13ap_fixed_baseILi32ELi16ELb1EL9ap_q_mode5EL9ap_o_mode3ELi0EEcveEv", scope: !45, file: !46, line: 1177, type: !1584, isLocal: false, isDefinition: false, scopeLine: 1177, flags: DIFlagPrototyped, isOptimized: false)
!1584 = !DISubroutineType(types: !1585)
!1585 = !{!1586, !102}
!1586 = !DIBasicType(name: "long double", size: 64, encoding: DW_ATE_float)
!1587 = !DISubprogram(name: "operator double", linkageName: "_ZNK13ap_fixed_baseILi32ELi16ELb1EL9ap_q_mode5EL9ap_o_mode3ELi0EEcvdEv", scope: !45, file: !46, line: 1179, type: !1575, isLocal: false, isDefinition: false, scopeLine: 1179, flags: DIFlagPrototyped, isOptimized: false)
!1588 = !DISubprogram(name: "operator float", linkageName: "_ZNK13ap_fixed_baseILi32ELi16ELb1EL9ap_q_mode5EL9ap_o_mode3ELi0EEcvfEv", scope: !45, file: !46, line: 1181, type: !1578, isLocal: false, isDefinition: false, scopeLine: 1181, flags: DIFlagPrototyped, isOptimized: false)
!1589 = !DISubprogram(name: "operator __fp16", linkageName: "_ZNK13ap_fixed_baseILi32ELi16ELb1EL9ap_q_mode5EL9ap_o_mode3ELi0EEcvDhEv", scope: !45, file: !46, line: 1183, type: !1581, isLocal: false, isDefinition: false, scopeLine: 1183, flags: DIFlagPrototyped, isOptimized: false)
!1590 = !DISubprogram(name: "operator bool", linkageName: "_ZNK13ap_fixed_baseILi32ELi16ELb1EL9ap_q_mode5EL9ap_o_mode3ELi0EEcvbEv", scope: !45, file: !46, line: 1185, type: !1591, isLocal: false, isDefinition: false, scopeLine: 1185, flags: DIFlagPrototyped, isOptimized: false)
!1591 = !DISubroutineType(types: !1592)
!1592 = !{!64, !102}
!1593 = !DISubprogram(name: "operator char", linkageName: "_ZNK13ap_fixed_baseILi32ELi16ELb1EL9ap_q_mode5EL9ap_o_mode3ELi0EEcvcEv", scope: !45, file: !46, line: 1187, type: !1559, isLocal: false, isDefinition: false, scopeLine: 1187, flags: DIFlagPrototyped, isOptimized: false)
!1594 = !DISubprogram(name: "operator signed char", linkageName: "_ZNK13ap_fixed_baseILi32ELi16ELb1EL9ap_q_mode5EL9ap_o_mode3ELi0EEcvaEv", scope: !45, file: !46, line: 1189, type: !1595, isLocal: false, isDefinition: false, scopeLine: 1189, flags: DIFlagPrototyped, isOptimized: false)
!1595 = !DISubroutineType(types: !1596)
!1596 = !{!114, !102}
!1597 = !DISubprogram(name: "operator unsigned char", linkageName: "_ZNK13ap_fixed_baseILi32ELi16ELb1EL9ap_q_mode5EL9ap_o_mode3ELi0EEcvhEv", scope: !45, file: !46, line: 1191, type: !1598, isLocal: false, isDefinition: false, scopeLine: 1191, flags: DIFlagPrototyped, isOptimized: false)
!1598 = !DISubroutineType(types: !1599)
!1599 = !{!130, !102}
!1600 = !DISubprogram(name: "operator short", linkageName: "_ZNK13ap_fixed_baseILi32ELi16ELb1EL9ap_q_mode5EL9ap_o_mode3ELi0EEcvsEv", scope: !45, file: !46, line: 1193, type: !1601, isLocal: false, isDefinition: false, scopeLine: 1193, flags: DIFlagPrototyped, isOptimized: false)
!1601 = !DISubroutineType(types: !1602)
!1602 = !{!135, !102}
!1603 = !DISubprogram(name: "operator unsigned short", linkageName: "_ZNK13ap_fixed_baseILi32ELi16ELb1EL9ap_q_mode5EL9ap_o_mode3ELi0EEcvtEv", scope: !45, file: !46, line: 1195, type: !1604, isLocal: false, isDefinition: false, scopeLine: 1195, flags: DIFlagPrototyped, isOptimized: false)
!1604 = !DISubroutineType(types: !1605)
!1605 = !{!140, !102}
!1606 = !DISubprogram(name: "operator int", linkageName: "_ZNK13ap_fixed_baseILi32ELi16ELb1EL9ap_q_mode5EL9ap_o_mode3ELi0EEcviEv", scope: !45, file: !46, line: 1197, type: !100, isLocal: false, isDefinition: false, scopeLine: 1197, flags: DIFlagPrototyped, isOptimized: false)
!1607 = !DISubprogram(name: "operator unsigned int", linkageName: "_ZNK13ap_fixed_baseILi32ELi16ELb1EL9ap_q_mode5EL9ap_o_mode3ELi0EEcvjEv", scope: !45, file: !46, line: 1199, type: !1563, isLocal: false, isDefinition: false, scopeLine: 1199, flags: DIFlagPrototyped, isOptimized: false)
!1608 = !DISubprogram(name: "operator long", linkageName: "_ZNK13ap_fixed_baseILi32ELi16ELb1EL9ap_q_mode5EL9ap_o_mode3ELi0EEcvlEv", scope: !45, file: !46, line: 1203, type: !1609, isLocal: false, isDefinition: false, scopeLine: 1203, flags: DIFlagPrototyped, isOptimized: false)
!1609 = !DISubroutineType(types: !1610)
!1610 = !{!153, !102}
!1611 = !DISubprogram(name: "operator unsigned long", linkageName: "_ZNK13ap_fixed_baseILi32ELi16ELb1EL9ap_q_mode5EL9ap_o_mode3ELi0EEcvmEv", scope: !45, file: !46, line: 1205, type: !1612, isLocal: false, isDefinition: false, scopeLine: 1205, flags: DIFlagPrototyped, isOptimized: false)
!1612 = !DISubroutineType(types: !1613)
!1613 = !{!158, !102}
!1614 = !DISubprogram(name: "operator unsigned long long", linkageName: "_ZNK13ap_fixed_baseILi32ELi16ELb1EL9ap_q_mode5EL9ap_o_mode3ELi0EEcvyEv", scope: !45, file: !46, line: 1212, type: !1569, isLocal: false, isDefinition: false, scopeLine: 1212, flags: DIFlagPrototyped, isOptimized: false)
!1615 = !DISubprogram(name: "operator long long", linkageName: "_ZNK13ap_fixed_baseILi32ELi16ELb1EL9ap_q_mode5EL9ap_o_mode3ELi0EEcvxEv", scope: !45, file: !46, line: 1214, type: !1566, isLocal: false, isDefinition: false, scopeLine: 1214, flags: DIFlagPrototyped, isOptimized: false)
!1616 = !DISubprogram(name: "length", linkageName: "_ZNK13ap_fixed_baseILi32ELi16ELb1EL9ap_q_mode5EL9ap_o_mode3ELi0EE6lengthEv", scope: !45, file: !46, line: 1216, type: !100, isLocal: false, isDefinition: false, scopeLine: 1216, flags: DIFlagPrototyped, isOptimized: false)
!1617 = !DISubprogram(name: "countLeadingZeros", linkageName: "_ZNK13ap_fixed_baseILi32ELi16ELb1EL9ap_q_mode5EL9ap_o_mode3ELi0EE17countLeadingZerosEv", scope: !45, file: !46, line: 1229, type: !100, isLocal: false, isDefinition: false, scopeLine: 1229, flags: DIFlagPrototyped, isOptimized: false)
!1618 = !DISubprogram(name: "operator++", linkageName: "_ZN13ap_fixed_baseILi32ELi16ELb1EL9ap_q_mode5EL9ap_o_mode3ELi0EEppEv", scope: !45, file: !46, line: 1377, type: !1619, isLocal: false, isDefinition: false, scopeLine: 1377, flags: DIFlagPrototyped, isOptimized: false)
!1619 = !DISubroutineType(types: !1620)
!1620 = !{!187, !92}
!1621 = !DISubprogram(name: "operator--", linkageName: "_ZN13ap_fixed_baseILi32ELi16ELb1EL9ap_q_mode5EL9ap_o_mode3ELi0EEmmEv", scope: !45, file: !46, line: 1383, type: !1619, isLocal: false, isDefinition: false, scopeLine: 1383, flags: DIFlagPrototyped, isOptimized: false)
!1622 = !DISubprogram(name: "operator++", linkageName: "_ZN13ap_fixed_baseILi32ELi16ELb1EL9ap_q_mode5EL9ap_o_mode3ELi0EEppEi", scope: !45, file: !46, line: 1389, type: !1623, isLocal: false, isDefinition: false, scopeLine: 1389, flags: DIFlagPrototyped, isOptimized: false)
!1623 = !DISubroutineType(types: !1624)
!1624 = !{!103, !92, !53}
!1625 = !DISubprogram(name: "operator--", linkageName: "_ZN13ap_fixed_baseILi32ELi16ELb1EL9ap_q_mode5EL9ap_o_mode3ELi0EEmmEi", scope: !45, file: !46, line: 1396, type: !1623, isLocal: false, isDefinition: false, scopeLine: 1396, flags: DIFlagPrototyped, isOptimized: false)
!1626 = !DISubprogram(name: "operator+", linkageName: "_ZN13ap_fixed_baseILi32ELi16ELb1EL9ap_q_mode5EL9ap_o_mode3ELi0EEpsEv", scope: !45, file: !46, line: 1404, type: !1627, isLocal: false, isDefinition: false, scopeLine: 1404, flags: DIFlagPrototyped, isOptimized: false)
!1627 = !DISubroutineType(types: !1628)
!1628 = !{!1629, !92}
!1629 = !DIDerivedType(tag: DW_TAG_typedef, name: "type", scope: !1630, file: !46, line: 91, baseType: !41)
!1630 = distinct !DICompositeType(tag: DW_TAG_structure_type, name: "_ap_fixed_factory<32, 16, true>", file: !46, line: 90, size: 8, flags: DIFlagTypePassByValue, elements: !4, templateParams: !1631, identifier: "_ZTS17_ap_fixed_factoryILi32ELi16ELb1EE")
!1631 = !{!1632, !1633, !425}
!1632 = !DITemplateValueParameter(name: "_AP_W2", type: !53, value: i32 32)
!1633 = !DITemplateValueParameter(name: "_AP_I2", type: !53, value: i32 16)
!1634 = !DISubprogram(name: "operator-", linkageName: "_ZNK13ap_fixed_baseILi32ELi16ELb1EL9ap_q_mode5EL9ap_o_mode3ELi0EEngEv", scope: !45, file: !46, line: 1406, type: !1635, isLocal: false, isDefinition: false, scopeLine: 1406, flags: DIFlagPrototyped, isOptimized: false)
!1635 = !DISubroutineType(types: !1636)
!1636 = !{!1637, !102}
!1637 = !DIDerivedType(tag: DW_TAG_typedef, name: "type", scope: !1638, file: !46, line: 91, baseType: !1642)
!1638 = distinct !DICompositeType(tag: DW_TAG_structure_type, name: "_ap_fixed_factory<33, 17, true>", file: !46, line: 90, size: 8, flags: DIFlagTypePassByValue, elements: !4, templateParams: !1639, identifier: "_ZTS17_ap_fixed_factoryILi33ELi17ELb1EE")
!1639 = !{!1640, !1641, !425}
!1640 = !DITemplateValueParameter(name: "_AP_W2", type: !53, value: i32 33)
!1641 = !DITemplateValueParameter(name: "_AP_I2", type: !53, value: i32 17)
!1642 = distinct !DICompositeType(tag: DW_TAG_structure_type, name: "ap_fixed<33, 17, AP_TRN, AP_WRAP, 0>", file: !42, line: 18, size: 64, flags: DIFlagTypePassByValue, elements: !1643, templateParams: !3932, identifier: "_ZTS8ap_fixedILi33ELi17EL9ap_q_mode5EL9ap_o_mode3ELi0EE")
!1643 = !{!1644, !3925}
!1644 = !DIDerivedType(tag: DW_TAG_inheritance, scope: !1642, baseType: !1645)
!1645 = distinct !DICompositeType(tag: DW_TAG_structure_type, name: "ap_fixed_base<33, 17, true, AP_TRN, AP_WRAP, 0>", file: !46, line: 110, size: 64, flags: DIFlagTypePassByValue, elements: !1646, templateParams: !2433, identifier: "_ZTS13ap_fixed_baseILi33ELi17ELb1EL9ap_q_mode5EL9ap_o_mode3ELi0EE")
!1646 = !{!1647, !1661, !1662, !1663, !1664, !1665, !1669, !1672, !1675, !1680, !1681, !1684, !1687, !1690, !1693, !1696, !1699, !1702, !1705, !1708, !1711, !1714, !1717, !1720, !1723, !1726, !1729, !1732, !1736, !1739, !1742, !1745, !1748, !1749, !1752, !1755, !1758, !1761, !1764, !1767, !1770, !1773, !1774, !1775, !1776, !1779, !1780, !1783, !1786, !1789, !1792, !1793, !1794, !1797, !1800, !1801, !1802, !1803, !1804, !1807, !1808, !1811, !1812, !1815, !2358, !2361, !2362, !2365, !2368, !2369, !2372, !2373, !2376, !2379, !2380, !2381, !2384, !2385, !2386, !2387, !2388, !2389, !2436, !2439, !2440, !2441, !2444, !3900, !3903, !3906, !3909, !3910, !3911, !3912, !3913, !3914, !3915, !3918, !3921, !3922}
!1647 = !DIDerivedType(tag: DW_TAG_inheritance, scope: !1645, baseType: !1648)
!1648 = distinct !DICompositeType(tag: DW_TAG_structure_type, name: "ssdm_int<33, true>", file: !50, line: 511, size: 64, flags: DIFlagTypePassByValue, elements: !1649, templateParams: !1659, identifier: "_ZTS8ssdm_intILi33ELb1EE")
!1649 = !{!1650, !1652, !1656}
!1650 = !DIDerivedType(tag: DW_TAG_member, name: "V", scope: !1648, file: !50, line: 513, baseType: !1651, size: 33, align: 64)
!1651 = !DIBasicType(name: "int33", size: 33, encoding: DW_ATE_signed)
!1652 = !DISubprogram(name: "ssdm_int", scope: !1648, file: !50, line: 514, type: !1653, isLocal: false, isDefinition: false, scopeLine: 514, flags: DIFlagPrototyped, isOptimized: false)
!1653 = !DISubroutineType(types: !1654)
!1654 = !{null, !1655}
!1655 = !DIDerivedType(tag: DW_TAG_pointer_type, baseType: !1648, size: 64, flags: DIFlagArtificial | DIFlagObjectPointer)
!1656 = !DISubprogram(name: "ssdm_int", scope: !1648, file: !50, line: 515, type: !1657, isLocal: false, isDefinition: false, scopeLine: 515, flags: DIFlagPrototyped, isOptimized: false)
!1657 = !DISubroutineType(types: !1658)
!1658 = !{null, !1655, !1651}
!1659 = !{!1660, !63}
!1660 = !DITemplateValueParameter(name: "_AP_N", type: !53, value: i32 33)
!1661 = !DIDerivedType(tag: DW_TAG_member, name: "width", scope: !1645, file: !46, line: 113, baseType: !66, flags: DIFlagStaticMember, extraData: i32 33)
!1662 = !DIDerivedType(tag: DW_TAG_member, name: "iwidth", scope: !1645, file: !46, line: 114, baseType: !66, flags: DIFlagStaticMember, extraData: i32 17)
!1663 = !DIDerivedType(tag: DW_TAG_member, name: "qmode", scope: !1645, file: !46, line: 115, baseType: !69, flags: DIFlagStaticMember, extraData: i32 5)
!1664 = !DIDerivedType(tag: DW_TAG_member, name: "omode", scope: !1645, file: !46, line: 116, baseType: !81, flags: DIFlagStaticMember, extraData: i32 3)
!1665 = !DISubprogram(name: "report", linkageName: "_ZN13ap_fixed_baseILi33ELi17ELb1EL9ap_q_mode5EL9ap_o_mode3ELi0EE6reportEv", scope: !1645, file: !46, line: 295, type: !1666, isLocal: false, isDefinition: false, scopeLine: 295, flags: DIFlagPrivate | DIFlagPrototyped, isOptimized: false)
!1666 = !DISubroutineType(types: !1667)
!1667 = !{null, !1668}
!1668 = !DIDerivedType(tag: DW_TAG_pointer_type, baseType: !1645, size: 64, flags: DIFlagArtificial | DIFlagObjectPointer)
!1669 = !DISubprogram(name: "overflow_adjust", linkageName: "_ZN13ap_fixed_baseILi33ELi17ELb1EL9ap_q_mode5EL9ap_o_mode3ELi0EE15overflow_adjustEbbbb", scope: !1645, file: !46, line: 300, type: !1670, isLocal: false, isDefinition: false, scopeLine: 300, flags: DIFlagPrivate | DIFlagPrototyped, isOptimized: false)
!1670 = !DISubroutineType(types: !1671)
!1671 = !{null, !1668, !64, !64, !64, !64}
!1672 = !DISubprogram(name: "quantization_adjust", linkageName: "_ZN13ap_fixed_baseILi33ELi17ELb1EL9ap_q_mode5EL9ap_o_mode3ELi0EE19quantization_adjustEbbb", scope: !1645, file: !46, line: 364, type: !1673, isLocal: false, isDefinition: false, scopeLine: 364, flags: DIFlagPrivate | DIFlagPrototyped, isOptimized: false)
!1673 = !DISubroutineType(types: !1674)
!1674 = !{!64, !1668, !64, !64, !64}
!1675 = !DISubprogram(name: "countLeadingOnes", linkageName: "_ZNK13ap_fixed_baseILi33ELi17ELb1EL9ap_q_mode5EL9ap_o_mode3ELi0EE16countLeadingOnesEv", scope: !1645, file: !46, line: 382, type: !1676, isLocal: false, isDefinition: false, scopeLine: 382, flags: DIFlagPrivate | DIFlagPrototyped, isOptimized: false)
!1676 = !DISubroutineType(types: !1677)
!1677 = !{!53, !1678}
!1678 = !DIDerivedType(tag: DW_TAG_pointer_type, baseType: !1679, size: 64, flags: DIFlagArtificial | DIFlagObjectPointer)
!1679 = !DIDerivedType(tag: DW_TAG_const_type, baseType: !1645)
!1680 = !DISubprogram(name: "ap_fixed_base", scope: !1645, file: !46, line: 395, type: !1666, isLocal: false, isDefinition: false, scopeLine: 395, flags: DIFlagPrototyped, isOptimized: false)
!1681 = !DISubprogram(name: "ap_fixed_base", scope: !1645, file: !46, line: 456, type: !1682, isLocal: false, isDefinition: false, scopeLine: 456, flags: DIFlagPrototyped, isOptimized: false)
!1682 = !DISubroutineType(types: !1683)
!1683 = !{null, !1668, !108}
!1684 = !DISubprogram(name: "ap_fixed_base", scope: !1645, file: !46, line: 462, type: !1685, isLocal: false, isDefinition: false, scopeLine: 462, flags: DIFlagPrototyped, isOptimized: false)
!1685 = !DISubroutineType(types: !1686)
!1686 = !{null, !1668, !108, !114}
!1687 = !DISubprogram(name: "ap_fixed_base", scope: !1645, file: !46, line: 524, type: !1688, isLocal: false, isDefinition: false, scopeLine: 524, flags: DIFlagPrototyped, isOptimized: false)
!1688 = !DISubroutineType(types: !1689)
!1689 = !{null, !1668, !118}
!1690 = !DISubprogram(name: "ap_fixed_base", scope: !1645, file: !46, line: 525, type: !1691, isLocal: false, isDefinition: false, scopeLine: 525, flags: DIFlagPrototyped, isOptimized: false)
!1691 = !DISubroutineType(types: !1692)
!1692 = !{null, !1668, !109}
!1693 = !DISubprogram(name: "ap_fixed_base", scope: !1645, file: !46, line: 526, type: !1694, isLocal: false, isDefinition: false, scopeLine: 526, flags: DIFlagPrototyped, isOptimized: false)
!1694 = !DISubroutineType(types: !1695)
!1695 = !{null, !1668, !125}
!1696 = !DISubprogram(name: "ap_fixed_base", scope: !1645, file: !46, line: 527, type: !1697, isLocal: false, isDefinition: false, scopeLine: 527, flags: DIFlagPrototyped, isOptimized: false)
!1697 = !DISubroutineType(types: !1698)
!1698 = !{null, !1668, !129}
!1699 = !DISubprogram(name: "ap_fixed_base", scope: !1645, file: !46, line: 528, type: !1700, isLocal: false, isDefinition: false, scopeLine: 528, flags: DIFlagPrototyped, isOptimized: false)
!1700 = !DISubroutineType(types: !1701)
!1701 = !{null, !1668, !134}
!1702 = !DISubprogram(name: "ap_fixed_base", scope: !1645, file: !46, line: 529, type: !1703, isLocal: false, isDefinition: false, scopeLine: 529, flags: DIFlagPrototyped, isOptimized: false)
!1703 = !DISubroutineType(types: !1704)
!1704 = !{null, !1668, !139}
!1705 = !DISubprogram(name: "ap_fixed_base", scope: !1645, file: !46, line: 530, type: !1706, isLocal: false, isDefinition: false, scopeLine: 530, flags: DIFlagPrototyped, isOptimized: false)
!1706 = !DISubroutineType(types: !1707)
!1707 = !{null, !1668, !66}
!1708 = !DISubprogram(name: "ap_fixed_base", scope: !1645, file: !46, line: 531, type: !1709, isLocal: false, isDefinition: false, scopeLine: 531, flags: DIFlagPrototyped, isOptimized: false)
!1709 = !DISubroutineType(types: !1710)
!1710 = !{null, !1668, !147}
!1711 = !DISubprogram(name: "ap_fixed_base", scope: !1645, file: !46, line: 532, type: !1712, isLocal: false, isDefinition: false, scopeLine: 532, flags: DIFlagPrototyped, isOptimized: false)
!1712 = !DISubroutineType(types: !1713)
!1713 = !{null, !1668, !152}
!1714 = !DISubprogram(name: "ap_fixed_base", scope: !1645, file: !46, line: 533, type: !1715, isLocal: false, isDefinition: false, scopeLine: 533, flags: DIFlagPrototyped, isOptimized: false)
!1715 = !DISubroutineType(types: !1716)
!1716 = !{null, !1668, !157}
!1717 = !DISubprogram(name: "ap_fixed_base", scope: !1645, file: !46, line: 534, type: !1718, isLocal: false, isDefinition: false, scopeLine: 534, flags: DIFlagPrototyped, isOptimized: false)
!1718 = !DISubroutineType(types: !1719)
!1719 = !{null, !1668, !162}
!1720 = !DISubprogram(name: "ap_fixed_base", scope: !1645, file: !46, line: 535, type: !1721, isLocal: false, isDefinition: false, scopeLine: 535, flags: DIFlagPrototyped, isOptimized: false)
!1721 = !DISubroutineType(types: !1722)
!1722 = !{null, !1668, !168}
!1723 = !DISubprogram(name: "ap_fixed_base", scope: !1645, file: !46, line: 543, type: !1724, isLocal: false, isDefinition: false, scopeLine: 543, flags: DIFlagPrototyped, isOptimized: false)
!1724 = !DISubroutineType(types: !1725)
!1725 = !{null, !1668, !174}
!1726 = !DISubprogram(name: "ap_fixed_base", scope: !1645, file: !46, line: 661, type: !1727, isLocal: false, isDefinition: false, scopeLine: 661, flags: DIFlagPrototyped, isOptimized: false)
!1727 = !DISubroutineType(types: !1728)
!1728 = !{null, !1668, !178}
!1729 = !DISubprogram(name: "ap_fixed_base", scope: !1645, file: !46, line: 664, type: !1730, isLocal: false, isDefinition: false, scopeLine: 664, flags: DIFlagPrototyped, isOptimized: false)
!1730 = !DISubroutineType(types: !1731)
!1731 = !{null, !1668, !182}
!1732 = !DISubprogram(name: "setBits", linkageName: "_ZN13ap_fixed_baseILi33ELi17ELb1EL9ap_q_mode5EL9ap_o_mode3ELi0EE7setBitsEy", scope: !1645, file: !46, line: 917, type: !1733, isLocal: false, isDefinition: false, scopeLine: 917, flags: DIFlagPrototyped, isOptimized: false)
!1733 = !DISubroutineType(types: !1734)
!1734 = !{!1735, !1668, !169}
!1735 = !DIDerivedType(tag: DW_TAG_reference_type, baseType: !1645, size: 64)
!1736 = !DISubprogram(name: "bitsToFixed", linkageName: "_ZN13ap_fixed_baseILi33ELi17ELb1EL9ap_q_mode5EL9ap_o_mode3ELi0EE11bitsToFixedEy", scope: !1645, file: !46, line: 924, type: !1737, isLocal: false, isDefinition: false, scopeLine: 924, flags: DIFlagPrototyped | DIFlagStaticMember, isOptimized: false)
!1737 = !DISubroutineType(types: !1738)
!1738 = !{!1645, !169}
!1739 = !DISubprogram(name: "checkOverflowCsimFix", linkageName: "_ZNK13ap_fixed_baseILi33ELi17ELb1EL9ap_q_mode5EL9ap_o_mode3ELi0EE20checkOverflowCsimFixEib", scope: !1645, file: !46, line: 935, type: !1740, isLocal: false, isDefinition: false, scopeLine: 935, flags: DIFlagPrototyped, isOptimized: false)
!1740 = !DISubroutineType(types: !1741)
!1741 = !{null, !1678, !53, !64}
!1742 = !DISubprogram(name: "to_ap_int_base", linkageName: "_ZNK13ap_fixed_baseILi33ELi17ELb1EL9ap_q_mode5EL9ap_o_mode3ELi0EE14to_ap_int_baseEb", scope: !1645, file: !46, line: 981, type: !1743, isLocal: false, isDefinition: false, scopeLine: 981, flags: DIFlagPrototyped, isOptimized: false)
!1743 = !DISubroutineType(types: !1744)
!1744 = !{!471, !1678, !64}
!1745 = !DISubprogram(name: "to_char", linkageName: "_ZNK13ap_fixed_baseILi33ELi17ELb1EL9ap_q_mode5EL9ap_o_mode3ELi0EE7to_charEv", scope: !1645, file: !46, line: 1020, type: !1746, isLocal: false, isDefinition: false, scopeLine: 1020, flags: DIFlagPrototyped, isOptimized: false)
!1746 = !DISubroutineType(types: !1747)
!1747 = !{!110, !1678}
!1748 = !DISubprogram(name: "to_int", linkageName: "_ZNK13ap_fixed_baseILi33ELi17ELb1EL9ap_q_mode5EL9ap_o_mode3ELi0EE6to_intEv", scope: !1645, file: !46, line: 1022, type: !1676, isLocal: false, isDefinition: false, scopeLine: 1022, flags: DIFlagPrototyped, isOptimized: false)
!1749 = !DISubprogram(name: "to_uint", linkageName: "_ZNK13ap_fixed_baseILi33ELi17ELb1EL9ap_q_mode5EL9ap_o_mode3ELi0EE7to_uintEv", scope: !1645, file: !46, line: 1024, type: !1750, isLocal: false, isDefinition: false, scopeLine: 1024, flags: DIFlagPrototyped, isOptimized: false)
!1750 = !DISubroutineType(types: !1751)
!1751 = !{!148, !1678}
!1752 = !DISubprogram(name: "to_int64", linkageName: "_ZNK13ap_fixed_baseILi33ELi17ELb1EL9ap_q_mode5EL9ap_o_mode3ELi0EE8to_int64Ev", scope: !1645, file: !46, line: 1026, type: !1753, isLocal: false, isDefinition: false, scopeLine: 1026, flags: DIFlagPrototyped, isOptimized: false)
!1753 = !DISubroutineType(types: !1754)
!1754 = !{!163, !1678}
!1755 = !DISubprogram(name: "to_uint64", linkageName: "_ZNK13ap_fixed_baseILi33ELi17ELb1EL9ap_q_mode5EL9ap_o_mode3ELi0EE9to_uint64Ev", scope: !1645, file: !46, line: 1028, type: !1756, isLocal: false, isDefinition: false, scopeLine: 1028, flags: DIFlagPrototyped, isOptimized: false)
!1756 = !DISubroutineType(types: !1757)
!1757 = !{!169, !1678}
!1758 = !DISubprogram(name: "to_ap_int", linkageName: "_ZNK13ap_fixed_baseILi33ELi17ELb1EL9ap_q_mode5EL9ap_o_mode3ELi0EE9to_ap_intEv", scope: !1645, file: !46, line: 1030, type: !1759, isLocal: false, isDefinition: false, scopeLine: 1030, flags: DIFlagPrototyped, isOptimized: false)
!1759 = !DISubroutineType(types: !1760)
!1760 = !{!468, !1678}
!1761 = !DISubprogram(name: "to_double", linkageName: "_ZNK13ap_fixed_baseILi33ELi17ELb1EL9ap_q_mode5EL9ap_o_mode3ELi0EE9to_doubleEv", scope: !1645, file: !46, line: 1034, type: !1762, isLocal: false, isDefinition: false, scopeLine: 1034, flags: DIFlagPrototyped, isOptimized: false)
!1762 = !DISubroutineType(types: !1763)
!1763 = !{!174, !1678}
!1764 = !DISubprogram(name: "to_float", linkageName: "_ZNK13ap_fixed_baseILi33ELi17ELb1EL9ap_q_mode5EL9ap_o_mode3ELi0EE8to_floatEv", scope: !1645, file: !46, line: 1084, type: !1765, isLocal: false, isDefinition: false, scopeLine: 1084, flags: DIFlagPrototyped, isOptimized: false)
!1765 = !DISubroutineType(types: !1766)
!1766 = !{!178, !1678}
!1767 = !DISubprogram(name: "to_half", linkageName: "_ZNK13ap_fixed_baseILi33ELi17ELb1EL9ap_q_mode5EL9ap_o_mode3ELi0EE7to_halfEv", scope: !1645, file: !46, line: 1131, type: !1768, isLocal: false, isDefinition: false, scopeLine: 1131, flags: DIFlagPrototyped, isOptimized: false)
!1768 = !DISubroutineType(types: !1769)
!1769 = !{!182, !1678}
!1770 = !DISubprogram(name: "operator long double", linkageName: "_ZNK13ap_fixed_baseILi33ELi17ELb1EL9ap_q_mode5EL9ap_o_mode3ELi0EEcveEv", scope: !1645, file: !46, line: 1177, type: !1771, isLocal: false, isDefinition: false, scopeLine: 1177, flags: DIFlagPrototyped, isOptimized: false)
!1771 = !DISubroutineType(types: !1772)
!1772 = !{!1586, !1678}
!1773 = !DISubprogram(name: "operator double", linkageName: "_ZNK13ap_fixed_baseILi33ELi17ELb1EL9ap_q_mode5EL9ap_o_mode3ELi0EEcvdEv", scope: !1645, file: !46, line: 1179, type: !1762, isLocal: false, isDefinition: false, scopeLine: 1179, flags: DIFlagPrototyped, isOptimized: false)
!1774 = !DISubprogram(name: "operator float", linkageName: "_ZNK13ap_fixed_baseILi33ELi17ELb1EL9ap_q_mode5EL9ap_o_mode3ELi0EEcvfEv", scope: !1645, file: !46, line: 1181, type: !1765, isLocal: false, isDefinition: false, scopeLine: 1181, flags: DIFlagPrototyped, isOptimized: false)
!1775 = !DISubprogram(name: "operator __fp16", linkageName: "_ZNK13ap_fixed_baseILi33ELi17ELb1EL9ap_q_mode5EL9ap_o_mode3ELi0EEcvDhEv", scope: !1645, file: !46, line: 1183, type: !1768, isLocal: false, isDefinition: false, scopeLine: 1183, flags: DIFlagPrototyped, isOptimized: false)
!1776 = !DISubprogram(name: "operator bool", linkageName: "_ZNK13ap_fixed_baseILi33ELi17ELb1EL9ap_q_mode5EL9ap_o_mode3ELi0EEcvbEv", scope: !1645, file: !46, line: 1185, type: !1777, isLocal: false, isDefinition: false, scopeLine: 1185, flags: DIFlagPrototyped, isOptimized: false)
!1777 = !DISubroutineType(types: !1778)
!1778 = !{!64, !1678}
!1779 = !DISubprogram(name: "operator char", linkageName: "_ZNK13ap_fixed_baseILi33ELi17ELb1EL9ap_q_mode5EL9ap_o_mode3ELi0EEcvcEv", scope: !1645, file: !46, line: 1187, type: !1746, isLocal: false, isDefinition: false, scopeLine: 1187, flags: DIFlagPrototyped, isOptimized: false)
!1780 = !DISubprogram(name: "operator signed char", linkageName: "_ZNK13ap_fixed_baseILi33ELi17ELb1EL9ap_q_mode5EL9ap_o_mode3ELi0EEcvaEv", scope: !1645, file: !46, line: 1189, type: !1781, isLocal: false, isDefinition: false, scopeLine: 1189, flags: DIFlagPrototyped, isOptimized: false)
!1781 = !DISubroutineType(types: !1782)
!1782 = !{!114, !1678}
!1783 = !DISubprogram(name: "operator unsigned char", linkageName: "_ZNK13ap_fixed_baseILi33ELi17ELb1EL9ap_q_mode5EL9ap_o_mode3ELi0EEcvhEv", scope: !1645, file: !46, line: 1191, type: !1784, isLocal: false, isDefinition: false, scopeLine: 1191, flags: DIFlagPrototyped, isOptimized: false)
!1784 = !DISubroutineType(types: !1785)
!1785 = !{!130, !1678}
!1786 = !DISubprogram(name: "operator short", linkageName: "_ZNK13ap_fixed_baseILi33ELi17ELb1EL9ap_q_mode5EL9ap_o_mode3ELi0EEcvsEv", scope: !1645, file: !46, line: 1193, type: !1787, isLocal: false, isDefinition: false, scopeLine: 1193, flags: DIFlagPrototyped, isOptimized: false)
!1787 = !DISubroutineType(types: !1788)
!1788 = !{!135, !1678}
!1789 = !DISubprogram(name: "operator unsigned short", linkageName: "_ZNK13ap_fixed_baseILi33ELi17ELb1EL9ap_q_mode5EL9ap_o_mode3ELi0EEcvtEv", scope: !1645, file: !46, line: 1195, type: !1790, isLocal: false, isDefinition: false, scopeLine: 1195, flags: DIFlagPrototyped, isOptimized: false)
!1790 = !DISubroutineType(types: !1791)
!1791 = !{!140, !1678}
!1792 = !DISubprogram(name: "operator int", linkageName: "_ZNK13ap_fixed_baseILi33ELi17ELb1EL9ap_q_mode5EL9ap_o_mode3ELi0EEcviEv", scope: !1645, file: !46, line: 1197, type: !1676, isLocal: false, isDefinition: false, scopeLine: 1197, flags: DIFlagPrototyped, isOptimized: false)
!1793 = !DISubprogram(name: "operator unsigned int", linkageName: "_ZNK13ap_fixed_baseILi33ELi17ELb1EL9ap_q_mode5EL9ap_o_mode3ELi0EEcvjEv", scope: !1645, file: !46, line: 1199, type: !1750, isLocal: false, isDefinition: false, scopeLine: 1199, flags: DIFlagPrototyped, isOptimized: false)
!1794 = !DISubprogram(name: "operator long", linkageName: "_ZNK13ap_fixed_baseILi33ELi17ELb1EL9ap_q_mode5EL9ap_o_mode3ELi0EEcvlEv", scope: !1645, file: !46, line: 1203, type: !1795, isLocal: false, isDefinition: false, scopeLine: 1203, flags: DIFlagPrototyped, isOptimized: false)
!1795 = !DISubroutineType(types: !1796)
!1796 = !{!153, !1678}
!1797 = !DISubprogram(name: "operator unsigned long", linkageName: "_ZNK13ap_fixed_baseILi33ELi17ELb1EL9ap_q_mode5EL9ap_o_mode3ELi0EEcvmEv", scope: !1645, file: !46, line: 1205, type: !1798, isLocal: false, isDefinition: false, scopeLine: 1205, flags: DIFlagPrototyped, isOptimized: false)
!1798 = !DISubroutineType(types: !1799)
!1799 = !{!158, !1678}
!1800 = !DISubprogram(name: "operator unsigned long long", linkageName: "_ZNK13ap_fixed_baseILi33ELi17ELb1EL9ap_q_mode5EL9ap_o_mode3ELi0EEcvyEv", scope: !1645, file: !46, line: 1212, type: !1756, isLocal: false, isDefinition: false, scopeLine: 1212, flags: DIFlagPrototyped, isOptimized: false)
!1801 = !DISubprogram(name: "operator long long", linkageName: "_ZNK13ap_fixed_baseILi33ELi17ELb1EL9ap_q_mode5EL9ap_o_mode3ELi0EEcvxEv", scope: !1645, file: !46, line: 1214, type: !1753, isLocal: false, isDefinition: false, scopeLine: 1214, flags: DIFlagPrototyped, isOptimized: false)
!1802 = !DISubprogram(name: "length", linkageName: "_ZNK13ap_fixed_baseILi33ELi17ELb1EL9ap_q_mode5EL9ap_o_mode3ELi0EE6lengthEv", scope: !1645, file: !46, line: 1216, type: !1676, isLocal: false, isDefinition: false, scopeLine: 1216, flags: DIFlagPrototyped, isOptimized: false)
!1803 = !DISubprogram(name: "countLeadingZeros", linkageName: "_ZNK13ap_fixed_baseILi33ELi17ELb1EL9ap_q_mode5EL9ap_o_mode3ELi0EE17countLeadingZerosEv", scope: !1645, file: !46, line: 1229, type: !1676, isLocal: false, isDefinition: false, scopeLine: 1229, flags: DIFlagPrototyped, isOptimized: false)
!1804 = !DISubprogram(name: "operator++", linkageName: "_ZN13ap_fixed_baseILi33ELi17ELb1EL9ap_q_mode5EL9ap_o_mode3ELi0EEppEv", scope: !1645, file: !46, line: 1377, type: !1805, isLocal: false, isDefinition: false, scopeLine: 1377, flags: DIFlagPrototyped, isOptimized: false)
!1805 = !DISubroutineType(types: !1806)
!1806 = !{!1735, !1668}
!1807 = !DISubprogram(name: "operator--", linkageName: "_ZN13ap_fixed_baseILi33ELi17ELb1EL9ap_q_mode5EL9ap_o_mode3ELi0EEmmEv", scope: !1645, file: !46, line: 1383, type: !1805, isLocal: false, isDefinition: false, scopeLine: 1383, flags: DIFlagPrototyped, isOptimized: false)
!1808 = !DISubprogram(name: "operator++", linkageName: "_ZN13ap_fixed_baseILi33ELi17ELb1EL9ap_q_mode5EL9ap_o_mode3ELi0EEppEi", scope: !1645, file: !46, line: 1389, type: !1809, isLocal: false, isDefinition: false, scopeLine: 1389, flags: DIFlagPrototyped, isOptimized: false)
!1809 = !DISubroutineType(types: !1810)
!1810 = !{!1679, !1668, !53}
!1811 = !DISubprogram(name: "operator--", linkageName: "_ZN13ap_fixed_baseILi33ELi17ELb1EL9ap_q_mode5EL9ap_o_mode3ELi0EEmmEi", scope: !1645, file: !46, line: 1396, type: !1809, isLocal: false, isDefinition: false, scopeLine: 1396, flags: DIFlagPrototyped, isOptimized: false)
!1812 = !DISubprogram(name: "operator+", linkageName: "_ZN13ap_fixed_baseILi33ELi17ELb1EL9ap_q_mode5EL9ap_o_mode3ELi0EEpsEv", scope: !1645, file: !46, line: 1404, type: !1813, isLocal: false, isDefinition: false, scopeLine: 1404, flags: DIFlagPrototyped, isOptimized: false)
!1813 = !DISubroutineType(types: !1814)
!1814 = !{!1637, !1668}
!1815 = !DISubprogram(name: "operator-", linkageName: "_ZNK13ap_fixed_baseILi33ELi17ELb1EL9ap_q_mode5EL9ap_o_mode3ELi0EEngEv", scope: !1645, file: !46, line: 1406, type: !1816, isLocal: false, isDefinition: false, scopeLine: 1406, flags: DIFlagPrototyped, isOptimized: false)
!1816 = !DISubroutineType(types: !1817)
!1817 = !{!1818, !1678}
!1818 = !DIDerivedType(tag: DW_TAG_typedef, name: "type", scope: !1819, file: !46, line: 91, baseType: !1823)
!1819 = distinct !DICompositeType(tag: DW_TAG_structure_type, name: "_ap_fixed_factory<34, 18, true>", file: !46, line: 90, size: 8, flags: DIFlagTypePassByValue, elements: !4, templateParams: !1820, identifier: "_ZTS17_ap_fixed_factoryILi34ELi18ELb1EE")
!1820 = !{!1821, !1822, !425}
!1821 = !DITemplateValueParameter(name: "_AP_W2", type: !53, value: i32 34)
!1822 = !DITemplateValueParameter(name: "_AP_I2", type: !53, value: i32 18)
!1823 = distinct !DICompositeType(tag: DW_TAG_structure_type, name: "ap_fixed<34, 18, AP_TRN, AP_WRAP, 0>", file: !1824, line: 18, size: 64, flags: DIFlagTypePassByValue, elements: !1825, templateParams: !2357, identifier: "_ZTS8ap_fixedILi34ELi18EL9ap_q_mode5EL9ap_o_mode3ELi0EE")
!1824 = !DIFile(filename: "/wrk/ci/prod/2022.2/hls_product/continuous/608/2022.2/src/shared/hls/clib/include/header_files/ap_fixed.h", directory: "/wrk/ci/prod/2022.2/hls_product/continuous/608/2022.2/src/shared/hls/clib/hlsmath")
!1825 = !{!1826, !2350}
!1826 = !DIDerivedType(tag: DW_TAG_inheritance, scope: !1823, baseType: !1827)
!1827 = distinct !DICompositeType(tag: DW_TAG_structure_type, name: "ap_fixed_base<34, 18, true, AP_TRN, AP_WRAP, 0>", file: !1828, line: 110, size: 64, flags: DIFlagTypePassByValue, elements: !1829, templateParams: !2347, identifier: "_ZTS13ap_fixed_baseILi34ELi18ELb1EL9ap_q_mode5EL9ap_o_mode3ELi0EE")
!1828 = !DIFile(filename: "/wrk/ci/prod/2022.2/hls_product/continuous/608/2022.2/src/shared/hls/clib/include/header_files/ap_fixed_base.h", directory: "/wrk/ci/prod/2022.2/hls_product/continuous/608/2022.2/src/shared/hls/clib/hlsmath")
!1829 = !{!1830, !1844, !1845, !1846, !1847, !1848, !1852, !1855, !1858, !1863, !1864, !1867, !1870, !1873, !1876, !1879, !1882, !1885, !1888, !1891, !1894, !1897, !1900, !1903, !1906, !1909, !1912, !1915, !1919, !1922, !1925, !1928, !1931, !1932, !1935, !1938, !1941, !1944, !1947, !1950, !1953, !1956, !1957, !1958, !1959, !1962, !1963, !1966, !1969, !1972, !1975, !1976, !1977, !1980, !1983, !1984, !1985, !1986, !1987, !1990, !1991, !1994, !1995, !1999, !2275, !2278, !2279, !2282, !2285, !2286, !2289, !2290, !2293, !2296, !2297, !2298, !2301, !2302, !2303, !2304, !2305, !2306, !2310, !2313, !2314, !2315, !2318, !2322, !2325, !2328, !2331, !2332, !2333, !2334, !2335, !2336, !2337, !2340, !2343, !2344}
!1830 = !DIDerivedType(tag: DW_TAG_inheritance, scope: !1827, baseType: !1831)
!1831 = distinct !DICompositeType(tag: DW_TAG_structure_type, name: "ssdm_int<34, true>", file: !50, line: 511, size: 64, flags: DIFlagTypePassByValue, elements: !1832, templateParams: !1842, identifier: "_ZTS8ssdm_intILi34ELb1EE")
!1832 = !{!1833, !1835, !1839}
!1833 = !DIDerivedType(tag: DW_TAG_member, name: "V", scope: !1831, file: !50, line: 513, baseType: !1834, size: 34, align: 64)
!1834 = !DIBasicType(name: "int34", size: 34, encoding: DW_ATE_signed)
!1835 = !DISubprogram(name: "ssdm_int", scope: !1831, file: !50, line: 514, type: !1836, isLocal: false, isDefinition: false, scopeLine: 514, flags: DIFlagPrototyped, isOptimized: false)
!1836 = !DISubroutineType(types: !1837)
!1837 = !{null, !1838}
!1838 = !DIDerivedType(tag: DW_TAG_pointer_type, baseType: !1831, size: 64, flags: DIFlagArtificial | DIFlagObjectPointer)
!1839 = !DISubprogram(name: "ssdm_int", scope: !1831, file: !50, line: 515, type: !1840, isLocal: false, isDefinition: false, scopeLine: 515, flags: DIFlagPrototyped, isOptimized: false)
!1840 = !DISubroutineType(types: !1841)
!1841 = !{null, !1838, !1834}
!1842 = !{!1843, !63}
!1843 = !DITemplateValueParameter(name: "_AP_N", type: !53, value: i32 34)
!1844 = !DIDerivedType(tag: DW_TAG_member, name: "width", scope: !1827, file: !1828, line: 113, baseType: !66, flags: DIFlagStaticMember, extraData: i32 34)
!1845 = !DIDerivedType(tag: DW_TAG_member, name: "iwidth", scope: !1827, file: !1828, line: 114, baseType: !66, flags: DIFlagStaticMember, extraData: i32 18)
!1846 = !DIDerivedType(tag: DW_TAG_member, name: "qmode", scope: !1827, file: !1828, line: 115, baseType: !69, flags: DIFlagStaticMember, extraData: i32 5)
!1847 = !DIDerivedType(tag: DW_TAG_member, name: "omode", scope: !1827, file: !1828, line: 116, baseType: !81, flags: DIFlagStaticMember, extraData: i32 3)
!1848 = !DISubprogram(name: "report", linkageName: "_ZN13ap_fixed_baseILi34ELi18ELb1EL9ap_q_mode5EL9ap_o_mode3ELi0EE6reportEv", scope: !1827, file: !1828, line: 295, type: !1849, isLocal: false, isDefinition: false, scopeLine: 295, flags: DIFlagPrivate | DIFlagPrototyped, isOptimized: false)
!1849 = !DISubroutineType(types: !1850)
!1850 = !{null, !1851}
!1851 = !DIDerivedType(tag: DW_TAG_pointer_type, baseType: !1827, size: 64, flags: DIFlagArtificial | DIFlagObjectPointer)
!1852 = !DISubprogram(name: "overflow_adjust", linkageName: "_ZN13ap_fixed_baseILi34ELi18ELb1EL9ap_q_mode5EL9ap_o_mode3ELi0EE15overflow_adjustEbbbb", scope: !1827, file: !1828, line: 300, type: !1853, isLocal: false, isDefinition: false, scopeLine: 300, flags: DIFlagPrivate | DIFlagPrototyped, isOptimized: false)
!1853 = !DISubroutineType(types: !1854)
!1854 = !{null, !1851, !64, !64, !64, !64}
!1855 = !DISubprogram(name: "quantization_adjust", linkageName: "_ZN13ap_fixed_baseILi34ELi18ELb1EL9ap_q_mode5EL9ap_o_mode3ELi0EE19quantization_adjustEbbb", scope: !1827, file: !1828, line: 364, type: !1856, isLocal: false, isDefinition: false, scopeLine: 364, flags: DIFlagPrivate | DIFlagPrototyped, isOptimized: false)
!1856 = !DISubroutineType(types: !1857)
!1857 = !{!64, !1851, !64, !64, !64}
!1858 = !DISubprogram(name: "countLeadingOnes", linkageName: "_ZNK13ap_fixed_baseILi34ELi18ELb1EL9ap_q_mode5EL9ap_o_mode3ELi0EE16countLeadingOnesEv", scope: !1827, file: !1828, line: 382, type: !1859, isLocal: false, isDefinition: false, scopeLine: 382, flags: DIFlagPrivate | DIFlagPrototyped, isOptimized: false)
!1859 = !DISubroutineType(types: !1860)
